ccopy_reg
_reconstructor
p0
(csklearn.pipeline
Pipeline
p1
c__builtin__
object
p2
Ntp3
Rp4
(dp5
S'_sklearn_version'
p6
S'0.19.1'
p7
sS'steps'
p8
(lp9
(S'select_features'
p10
g0
(csklearn.feature_selection.univariate_selection
SelectKBest
p11
g2
Ntp12
Rp13
(dp14
S'k'
p15
I9
sg6
g7
sS'score_func'
p16
csklearn.feature_selection.univariate_selection
f_classif
p17
sbtp18
a(S'classify'
p19
g0
(csklearn.tree.tree
DecisionTreeClassifier
p20
g2
Ntp21
Rp22
(dp23
S'presort'
p24
I00
sS'splitter'
p25
S'best'
p26
sS'min_impurity_decrease'
p27
F0.0
sS'min_impurity_split'
p28
NsS'min_samples_leaf'
p29
I2
sS'max_features'
p30
NsS'random_state'
p31
NsS'criterion'
p32
S'gini'
p33
sS'min_weight_fraction_leaf'
p34
F0.0
sS'max_leaf_nodes'
p35
NsS'min_samples_split'
p36
I6
sg6
g7
sS'max_depth'
p37
NsS'class_weight'
p38
Nsbtp39
asS'memory'
p40
Nsb.