(dp0
S'METTS MARK'
p1
(dp2
S'to_messages'
p3
F0.11178107606679034
sS'expenses'
p4
F1.0
sS'poi'
p5
F0.0
sS'deferred_income'
p6
F0.9645596912619846
sS'from_poi_to_this_person'
p7
F0.09848484848484848
sS'shared_receipt_with_poi'
p8
F0.2658090233737996
sS'from_messages'
p9
F0.002577319587628866
sS'bonus_to_salary'
p10
F0.12801203850491844
sS'to_poi_ratio'
p11
F0.13718768299824324
sS'long_term_incentive'
p12
F0.060297138948715884
sS'bonus'
p13
F0.1046658259773014
sS'total_stock_value'
p14
F0.02018046444115597
sS'from_this_person_to_poi'
p15
F0.0
sS'from_poi_ratio'
p16
F0.0
sS'restricted_stock'
p17
F0.17537450944893823
sS'salary'
p18
F0.2367127273512961
sS'bonus_to_total'
p19
F0.11989309040489839
sS'total_payments'
p20
F0.01273290382561663
sS'exercised_stock_options'
p21
F0.014659442385069265
sS'stock_to_salary'
p22
F0.0003233468356471417
sS'expenses_to_salary'
p23
F0.007337502881335025
sS'other'
p24
F0.004979378317594662
ssS'BAXTER JOHN C'
p25
(dp26
g3
F0.12158759607739197
sg4
F0.13352579664501454
sg5
F1.0
sg6
F0.9331629919684389
sg7
F0.10984848484848485
sg8
F0.2868273237905417
sg9
F0.002577319587628866
sg10
F0.08638077084927943
sg11
F0.14104741127254736
sg12
F0.055312318577773856
sg13
F0.11727616645649433
sg14
F0.05179938849950292
sg15
F0.019704433497536946
sg16
F0.24489795918367346
sg17
F0.29405153141300355
sg18
F0.3733517227968429
sg19
F0.09116250105442367
sg20
F0.018043804611342574
sg21
F0.11388151770941175
sg22
F0.0005442173627249412
sg23
F0.00060544782273543
sg24
F0.0297201847114311
ssS'ELLIOTT STEVEN'
p27
(dp28
g3
F0.0029817121653856345
sg4
F0.12122126719594077
sg5
F0.0
sg6
F0.9884639964059342
sg7
F0.0
sg8
F0.012502264903062148
sg9
F0.0014628030091947616
sg10
F0.0920338066479217
sg11
F0.0
sg12
F0.060297138948715884
sg13
F0.09205548549810845
sg14
F0.010980268592059056
sg15
F0.006568144499178982
sg16
F0.12121212121212122
sg17
F0.17174596330431602
sg18
F0.282513834860337
sg19
F0.12845226538381943
sg20
F0.010633920191595867
sg21
F0.0033269957964016934
sg22
F0.00013946108404419203
sg23
F0.0007305728478698343
sg24
F4.7491598958157875e-05
ssS'CORDES WILLIAM R'
p29
(dp30
g3
F0.021600848131460376
sg4
F0.2581939067865188
sg5
F0.0
sg6
F0.8615748070601472
sg7
F0.007575757575757576
sg8
F0.04185540858851241
sg9
F0.003273892449150181
sg10
F0.04185653905431532
sg11
F0.04805288595078051
sg12
F0.021872022262273964
sg13
F0.02269861286254729
sg14
F0.014308897611150843
sg15
F0.0
sg16
F0.0
sg17
F0.1879364516695205
sg18
F0.16875063581390032
sg19
F0.06559141558481453
sg20
F0.005974354199456747
sg21
F0.02990365524932684
sg22
F0.00031513362913769175
sg23
F0.0026474173572843384
sg24
F0.04124761202684202
ssS'HANNON KEVIN P'
p31
(dp32
g3
F0.058772859793267955
sg4
F0.19444480895829233
sg5
F0.0
sg6
F0.9656203288490284
sg7
F0.05018939393939394
sg8
F0.10726580902337379
sg9
F0.002020061298411814
sg10
F0.08904993620425677
sg11
F0.10463085404686714
sg12
F0.060297138948715884
sg13
F0.07944514501891552
sg14
F0.004485295866346724
sg15
F0.009852216748768473
sg16
F0.05377599822044267
sg17
F0.17379042511584583
sg18
F0.22612648217785505
sg19
F0.07926452614279388
sg20
F0.0004870912796195854
sg21
F0.005039816597995539
sg22
F0.0005453420331481199
sg23
F0.0015391949929556713
sg24
F0.0012509016888186339
ssS'MORDAUNT KRISTINA M'
p33
(dp34
g3
F0.058772859793267955
sg4
F0.0
sg5
F0.0
sg6
F0.9706249627164195
sg7
F0.05018939393939394
sg8
F0.10726580902337379
sg9
F0.002020061298411814
sg10
F0.08904993620425677
sg11
F0.10463085404686714
sg12
F0.060297138948715884
sg13
F0.07944514501891552
sg14
F0.02185820609201201
sg15
F0.009852216748768473
sg16
F0.05377599822044267
sg17
F0.17379042511584583
sg18
F0.22612648217785505
sg19
F0.07926452614279388
sg20
F0.0
sg21
F0.02990365524932684
sg22
F0.0005453420331481199
sg23
F0.0015391949929556713
sg24
F0.0012509016888186339
ssS'MEYER ROCKFORD G'
p35
(dp36
g3
F0.0554598462761728
sg4
F0.19444480895829233
sg5
F0.0
sg6
F0.9656203288490284
sg7
F0.10227272727272728
sg8
F0.13009603188983512
sg9
F6.965728615213149e-05
sg10
F0.08904993620425677
sg11
F0.2779166071683565
sg12
F0.060297138948715884
sg13
F0.07944514501891552
sg14
F0.035306444289336096
sg15
F0.0016420361247947454
sg16
F0.07692307692307693
sg17
F0.20376122929481802
sg18
F0.22612648217785505
sg19
F0.07926452614279388
sg20
F0.010210540988239192
sg21
F0.0219541076297378
sg22
F0.0005453420331481199
sg23
F0.0015391949929556713
sg24
F0.0012509016888186339
ssS'MCMAHON JEFFREY'
p37
(dp38
g3
F0.09707129605088788
sg4
F0.035268901865581875
sg5
F0.0
sg6
F0.9656203288490284
sg7
F0.015151515151515152
sg8
F0.08606631636165972
sg9
F0.01518528838116467
sg10
F0.08904993620425677
sg11
F0.024184303967344202
sg12
F1.0
sg13
F0.07944514501891552
sg14
F0.043015657816708984
sg15
F0.0
sg16
F0.0
sg17
F0.17379042511584583
sg18
F0.3142023495180418
sg19
F0.07926452614279388
sg20
F0.08117899593031629
sg21
F0.06018387077585655
sg22
F0.0005348946936186999
sg23
F0.00017855986443602489
sg24
F0.27205852046101214
ssS'HORTON STANLEY C'
p39
(dp40
g3
F0.058772859793267955
sg4
F0.19444480895829233
sg5
F0.0
sg6
F0.9656203288490284
sg7
F0.05018939393939394
sg8
F0.10726580902337379
sg9
F0.002020061298411814
sg10
F0.08904993620425677
sg11
F0.10463085404686714
sg12
F0.060297138948715884
sg13
F0.07944514501891552
sg14
F0.02185820609201201
sg15
F0.009852216748768473
sg16
F0.05377599822044267
sg17
F0.17379042511584583
sg18
F0.22612648217785505
sg19
F0.07926452614279388
sg20
F0.0011504867557242011
sg21
F0.02990365524932684
sg22
F0.0005453420331481199
sg23
F0.0015391949929556713
sg24
F0.0012509016888186339
ssS'PIPER GREGORY F'
p41
(dp42
g3
F0.07467532467532466
sg4
F0.27838505784834766
sg5
F0.0
sg6
F0.9656203288490284
sg7
F0.03787878787878788
sg8
F0.15473817720601557
sg9
F0.0027862914460852605
sg10
F0.08103528499378716
sg11
F0.07772067280046005
sg12
F0.006062986743458851
sg13
F0.08575031525851198
sg14
F0.053929421370975825
sg15
F0.02463054187192118
sg16
F0.28846153846153844
sg17
F0.20581487562264686
sg18
F0.295828790733727
sg19
F0.0974797586838969
sg20
F0.012759883446877401
sg21
F0.04756862107167023
sg22
F0.0007166144593039731
sg23
F0.0016218761986377418
sg24
F9.363181095409173e-05
ssS'HUMPHREY GENE E'
p43
(dp44
g3
F0.26186058839120063
sg4
F0.3325284867572119
sg5
F0.0
sg6
F0.7335130937080159
sg7
F0.34090909090909094
sg8
F0.33429969197318354
sg9
F0.1343689049874617
sg10
F0.11385413721291889
sg11
F0.20658306045440317
sg12
F0.18007978785751813
sg13
F0.13619167717528374
sg14
F0.017235302371389805
sg15
F0.10016420361247948
sg16
F0.03142709943328181
sg17
F0.1801581164866156
sg18
F0.33638313943072484
sg19
F0.044927125376442736
sg20
F0.03726274843835164
sg21
F0.0176288616899896
sg22
F0.00019127690083060295
sg23
F0.001704438287187105
sg24
F0.005056117791520954
ssS'UMANOFF ADAM S'
p45
(dp46
g3
F0.026702888947786906
sg4
F0.19444480895829233
sg5
F0.0
sg6
F0.8361186486974794
sg7
F0.01893939393939394
sg8
F0.06830947635441204
sg9
F0.00048760100306492065
sg10
F0.03700752752455713
sg11
F0.10002312673450509
sg12
F0.04053751902747935
sg13
F0.029003783102143764
sg14
F0.024659860502987633
sg15
F0.0180623973727422
sg16
F0.5789473684210527
sg17
F0.1831883158672049
sg18
F0.22224092777964335
sg19
F0.13328550478849344
sg20
F0.003855217927794171
sg21
F0.017119327564028862
sg22
F0.00042560381244980896
sg23
F0.0015391949929556713
sg24
F0.014677317269074754
ssS'BLACHMAN JEREMY M'
p47
(dp48
g3
F0.05618870924993374
sg4
F0.20471972530236424
sg5
F1.0
sg6
F0.0
sg7
F0.07954545454545454
sg8
F0.1561877151657909
sg9
F0.00041794371691278906
sg10
F0.15872215939760237
sg11
F0.21353003408957333
sg12
F0.304910099284683
sg13
F0.21185372005044137
sg14
F0.45950590846095235
sg15
F0.006568144499178982
sg16
F0.2222222222222222
sg17
F0.30823432482346147
sg18
F0.37825547970301976
sg19
F0.6624651833870397
sg20
F0.004875470556122512
sg21
F0.5762362193220057
sg22
F0.004871244076655809
sg23
F0.0009251750028124463
sg24
F0.016876603022454164
ssS'SUNDE MARTIN'
p49
(dp50
g3
F0.058772859793267955
sg4
F0.19444480895829233
sg5
F0.0
sg6
F0.9656203288490284
sg7
F0.05018939393939394
sg8
F0.10726580902337379
sg9
F0.002020061298411814
sg10
F0.012289026388324974
sg11
F0.10463085404686714
sg12
F0.09558290622671121
sg13
F0.0037831021437578806
sg14
F0.028613400885145638
sg15
F0.009852216748768473
sg16
F0.05377599822044267
sg17
F0.17379042511584583
sg18
F0.14611521082913737
sg19
F0.006331491104186274
sg20
F0.00964862326439995
sg21
F0.039571584871541644
sg22
F0.000757374879486504
sg23
F0.0015391949929556713
sg24
F1.5444422425417196e-05
ssS'GIBBS DANA R'
p51
(dp52
g3
F0.058772859793267955
sg4
F0.09352842114471928
sg5
F0.0
sg6
F0.9656203288490284
sg7
F0.05018939393939394
sg8
F0.10726580902337379
sg9
F0.002020061298411814
sg10
F0.03223832826485701
sg11
F0.10463085404686714
sg12
F0.42660775921253075
sg13
F0.016393442622950817
sg14
F0.02142308533694933
sg15
F0.009852216748768473
sg16
F0.05377599822044267
sg17
F0.17344011787506108
sg18
F0.1636398173897465
sg19
F0.0013047769250809325
sg20
F0.02599638111930569
sg21
F0.017415963774045317
sg22
F0.0004996288192920072
sg23
F0.0009804239296425203
sg24
F0.005190580794262242
ssS'LOWRY CHARLES P'
p53
(dp54
g3
F0.18320964749536175
sg4
F0.19444480895829233
sg5
F0.0
sg6
F0.9656203288490284
sg7
F0.1268939393939394
sg8
F0.4837832940750136
sg9
F0.0035525215937587075
sg10
F0.13777140200095261
sg11
F0.10923858135922918
sg12
F0.25967714896012006
sg13
F0.11727616645649433
sg14
F0.008231671733412004
sg15
F0.022988505747126436
sg16
F0.2222222222222222
sg17
F0.17073514826285383
sg18
F0.24601519111327977
sg19
F0.060008452465851965
sg20
F0.025725078528417124
sg21
F0.02990365524932684
sg22
F0.00011581005296434545
sg23
F0.0015391949929556713
sg24
F0.0002974016593294399
ssS'COLWELL WESLEY'
p55
(dp56
g3
F0.058772859793267955
sg4
F0.051370207554184984
sg5
F0.0
sg6
F0.9656203288490284
sg7
F0.05018939393939394
sg8
F0.10726580902337379
sg9
F0.002020061298411814
sg10
F0.08904993620425677
sg11
F0.10463085404686714
sg12
F0.060297138948715884
sg13
F0.07944514501891552
sg14
F0.05162754143488658
sg15
F0.009852216748768473
sg16
F0.05377599822044267
sg17
F0.20002724835807337
sg18
F0.19455230148877234
sg19
F0.07926452614279388
sg20
F0.002204777739437017
sg21
F0.04720065008401927
sg22
F0.0010433874822597504
sg23
F0.0004447077318277884
sg24
F0.0012509016888186339
ssS'MULLER MARK S'
p57
(dp58
g3
F0.04969520275642724
sg4
F0.4118321195022199
sg5
F0.0
sg6
F0.9656203288490284
sg7
F0.07196969696969698
sg8
F0.12683457148034064
sg9
F0.0011841738645862357
sg10
F0.05465609882350707
sg11
F0.21665480239394658
sg12
F0.060297138948715884
sg13
F0.06683480453972258
sg14
F0.012799625895430116
sg15
F0.0016420361247947454
sg16
F0.034482758620689655
sg17
F0.1836645287185717
sg18
F0.32887760953779366
sg19
F0.09700230092890605
sg20
F0.010251860171981084
sg21
F0.02990365524932684
sg22
F0.00014150372289736164
sg23
F0.0021636853464500716
sg24
F0.0001677650385960943
ssS'JACKSON CHARLENE R'
p59
(dp60
g3
F0.02961834084283064
sg4
F0.19444480895829233
sg5
F0.0
sg6
F0.9656203288490284
sg7
F0.030303030303030304
sg8
F0.00869722775865193
sg9
F0.0
sg10
F0.08904993620425677
sg11
F0.14606551840594395
sg12
F0.060297138948715884
sg13
F0.07944514501891552
sg14
F0.003977505794981264
sg15
F0.0
sg16
F0.0
sg17
F0.15869393068736345
sg18
F0.22612648217785505
sg19
F0.07926452614279388
sg20
F7.54444455656448e-05
sg21
F0.02990365524932684
sg22
F0.0005453420331481199
sg23
F0.0015391949929556713
sg24
F0.0012509016888186339
ssS'WESTFAHL RICHARD K'
p61
(dp62
g3
F0.022727272727272724
sg4
F0.19444480895829233
sg5
F0.0
sg6
F0.833742489410036
sg7
F0.04166666666666667
sg8
F0.060699402065591594
sg9
F0.001253831150738367
sg10
F0.038539736993981326
sg11
F0.2530585106382979
sg12
F0.02576271947718485
sg13
F0.032156368221942
sg14
F0.04273330131027945
sg15
F0.011494252873563218
sg16
F0.23333333333333334
sg17
F0.1723266896170166
sg18
F0.23363651340813357
sg19
F0.04808475057612239
sg20
F0.009986969345057141
sg21
F0.0484778046497988
sg22
F0.0007155266840417061
sg23
F0.0015391949929556713
sg24
F0.00013735883194605417
ssS'WALTERS GARETH W'
p63
(dp64
g3
F0.040683805989928434
sg4
F0.2221551516742121
sg5
F0.0
sg6
F0.9656203288490284
sg7
F0.032196969696969696
sg8
F0.03859394817901794
sg9
F0.009334076344385623
sg10
F0.08521641959754785
sg11
F0.11656942638805214
sg12
F0.09288975576468353
sg13
F0.09836065573770493
sg14
F0.12090713522561494
sg15
F0.0
sg16
F0.0
sg17
F0.23936997327680049
sg18
F0.32104798335585505
sg19
F0.07896145639791805
sg20
F0.017368078077131296
sg21
F0.12645935305063466
sg22
F0.0014987936812860443
sg23
F0.0011880325178164402
sg24
F0.0
ssS'WALLS JR ROBERT H'
p65
(dp66
g3
F0.058772859793267955
sg4
F0.4532729698401242
sg5
F0.0
sg6
F0.9656203288490284
sg7
F0.05018939393939394
sg8
F0.10726580902337379
sg9
F0.002020061298411814
sg10
F0.08904993620425677
sg11
F0.10463085404686714
sg12
F0.060297138948715884
sg13
F0.07944514501891552
sg14
F0.02185820609201201
sg15
F0.009852216748768473
sg16
F0.05377599822044267
sg17
F0.17379042511584583
sg18
F0.22612648217785505
sg19
F0.07926452614279388
sg20
F0.0020560421967456533
sg21
F0.02990365524932684
sg22
F0.0005453420331481199
sg23
F0.0015391949929556713
sg24
F0.0012509016888186339
ssS'KITCHEN LOUISE'
p67
(dp68
g3
F0.04386429896633978
sg4
F0.19444480895829233
sg5
F0.0
sg6
F0.9656203288490284
sg7
F0.06628787878787878
sg8
F0.10635984779851422
sg9
F0.0015324602953468935
sg10
F0.08904993620425677
sg11
F0.2239738999201018
sg12
F0.060297138948715884
sg13
F0.07944514501891552
sg14
F0.023649813970008773
sg15
F0.008210180623973728
sg16
F0.14705882352941177
sg17
F0.1709021394682908
sg18
F0.22612648217785505
sg19
F0.07926452614279388
sg20
F0.010210540988239192
sg21
F0.021886121219216754
sg22
F0.0005453420331481199
sg23
F0.0015391949929556713
sg24
F0.0012509016888186339
ssS'CHAN RONNIE'
p69
(dp70
g3
F0.058772859793267955
sg4
F0.19444480895829233
sg5
F0.0
sg6
F0.9656203288490284
sg7
F0.05018939393939394
sg8
F0.10726580902337379
sg9
F0.002020061298411814
sg10
F0.08904993620425677
sg11
F0.10463085404686714
sg12
F0.0048317534476009765
sg13
F0.07944514501891552
sg14
F0.033440376809528535
sg15
F0.009852216748768473
sg16
F0.05377599822044267
sg17
F0.17379042511584583
sg18
F0.07232838876430188
sg19
F0.07926452614279388
sg20
F0.008304277211456258
sg21
F0.04647987766755309
sg22
F0.0017965885731153445
sg23
F0.0015391949929556713
sg24
F8.41721022185237e-05
ssS'BELFER ROBERT'
p71
(dp72
g3
F0.06546514709780014
sg4
F0.1482448658224526
sg5
F1.0
sg6
F0.11056633080761147
sg7
F0.06060606060606061
sg8
F0.1871715890559884
sg9
F0.0013931457230426303
sg10
F0.24151997852405588
sg11
F0.14089382062506364
sg12
F0.304910099284683
sg13
F0.18032786885245902
sg14
F0.13091784215016056
sg15
F0.034482758620689655
sg16
F0.65625
sg17
F0.19909693459426664
sg18
F0.2185993458656567
sg19
F1.0000000000000002
sg20
F0.0027861625056748696
sg21
F0.16115009597148053
sg22
F0.00238570145314103
sg23
F0.0011648855025313519
sg24
F0.0010953956605227145
ssS'SHANKMAN JEFFREY A'
p73
(dp74
g3
F0.058772859793267955
sg4
F0.036134986768147324
sg5
F0.0
sg6
F0.943152850834567
sg7
F0.05018939393939394
sg8
F0.10726580902337379
sg9
F0.002020061298411814
sg10
F0.04097193984968003
sg11
F0.10463085404686714
sg12
F0.017144086406179725
sg13
F0.0037831021437578806
sg14
F0.0867878333254771
sg15
F0.009852216748768473
sg16
F0.05377599822044267
sg17
F0.1615768323081225
sg18
F0.06835010681673526
sg19
F0.0362503740368444
sg20
F0.0038077283868634348
sg21
F0.12104746007574471
sg22
F0.005023120709212236
sg23
F0.0009120442580967129
sg24
F0.01950340969409715
ssS'WODRASKA JOHN'
p75
(dp76
g3
F0.058772859793267955
sg4
F0.005533320210834809
sg5
F0.0
sg6
F0.993102145165208
sg7
F0.05018939393939394
sg8
F0.10726580902337379
sg9
F0.002020061298411814
sg10
F0.08904993620425677
sg11
F0.10463085404686714
sg12
F0.060297138948715884
sg13
F0.07944514501891552
sg14
F0.02185820609201201
sg15
F0.009852216748768473
sg16
F0.05377599822044267
sg17
F0.17379042511584583
sg18
F0.22612648217785505
sg19
F0.07926452614279388
sg20
F0.0008192766593589617
sg21
F0.02990365524932684
sg22
F0.0005453420331481199
sg23
F0.0015391949929556713
sg24
F0.0012509016888186339
ssS'BERGSIEKER RICHARD P'
p77
(dp78
g3
F0.15352504638218922
sg4
F0.5549460884018983
sg5
F1.0
sg6
F0.9253138171450525
sg7
F0.10037878787878789
sg8
F0.41112520384127554
sg9
F0.0034132070214544447
sg10
F0.08018308270532704
sg11
F0.10271962214773522
sg12
F0.04546245221091085
sg13
F0.07944514501891552
sg14
F0.03995892840914762
sg15
F0.02463054187192118
sg16
F0.2459016393442623
sg17
F0.22185691456453532
sg18
F0.2786048735079192
sg19
F0.07280447582413745
sg20
F0.015327138288278218
sg21
F0.019462806032383255
sg22
F0.0005595442265968262
sg23
F0.003451561563695278
sg24
F0.014523162627741058
ssS'URQUHART JOHN A'
p79
(dp80
g3
F0.0035780545984627613
sg4
F0.23171707893182864
sg5
F0.0
sg6
F0.9656203288490284
sg7
F0.022727272727272728
sg8
F0.007066497553904693
sg9
F0.00041794371691278906
sg10
F0.09978442540671376
sg11
F0.4974123059229443
sg12
F0.060297138948715884
sg13
F0.09063682219419925
sg14
F0.02185820609201201
sg15
F0.0
sg16
F0.0
sg17
F0.17379042511584583
sg18
F0.2593778611625514
sg19
F0.12286991963407982
sg20
F0.010914608677926619
sg21
F0.02990365524932684
sg22
F0.0005453420331481199
sg23
F0.001539076828466317
sg24
F0.0012509016888186339
ssS'BIBI PHILIPPE A'
p81
(dp82
g3
F0.279353299761463
sg4
F0.4360343809461321
sg5
F1.0
sg6
F0.9146103969313437
sg7
F0.23295454545454547
sg8
F0.4364921181373437
sg9
F0.0016717748676511562
sg10
F0.25648897827605865
sg11
F0.13244344747573833
sg12
F0.6955536324238689
sg13
F0.8738965952080706
sg14
F1.0
sg15
F0.026272577996715927
sg16
F0.4444444444444444
sg17
F1.0
sg18
F0.9649462855414345
sg19
F0.0
sg20
F0.9999999999999999
sg21
F0.9999999999999999
sg22
F0.0041622544844590464
sg23
F0.0007682838799079126
sg24
F0.9999999999999999
ssS'PIRO JIM'
p83
(dp84
g3
F0.058772859793267955
sg4
F0.08173566913807055
sg5
F0.0
sg6
F0.9656203288490284
sg7
F0.05018939393939394
sg8
F0.10726580902337379
sg9
F0.002020061298411814
sg10
F0.08904993620425677
sg11
F0.10463085404686714
sg12
F0.013122582965916901
sg13
F0.07944514501891552
sg14
F0.14956384881356252
sg15
F0.009852216748768473
sg16
F0.05377599822044267
sg17
F0.26750298165676467
sg18
F0.08504286623555858
sg19
F0.07926452614279388
sg20
F0.002410581843921925
sg21
F0.15324727991030102
sg22
F0.006997975155091535
sg23
F0.0016602411186608362
sg24
F1.67958093876412e-05
ssS'RIEKER PAULA H'
p85
(dp86
g3
F0.03949112112377418
sg4
F0.19444480895829233
sg5
F0.0
sg6
F0.9952428292079497
sg7
F0.0
sg8
F0.001811922449719152
sg9
F0.0009752020061298412
sg10
F0.08904993620425677
sg11
F0.0
sg12
F0.060297138948715884
sg13
F0.07944514501891552
sg14
F0.02185820609201201
sg15
F0.0
sg16
F0.0
sg17
F0.17379042511584583
sg18
F0.22612648217785505
sg19
F0.07926452614279388
sg20
F0.010210540988239192
sg21
F0.02990365524932684
sg22
F0.0005453420331481199
sg23
F0.0015391949929556713
sg24
F0.0012509016888186339
ssS'WHALEY DAVID A'
p87
(dp88
g3
F0.058772859793267955
sg4
F0.22624062288126326
sg5
F0.0
sg6
F0.9971551736194657
sg7
F0.05018939393939394
sg8
F0.10726580902337379
sg9
F0.002020061298411814
sg10
F0.08904993620425677
sg11
F0.10463085404686714
sg12
F0.03683219629759283
sg13
F0.07944514501891552
sg14
F0.008728109767124341
sg15
F0.009852216748768473
sg16
F0.05377599822044267
sg17
F0.1721402928818444
sg18
F0.05695722199065342
sg19
F0.07926452614279388
sg20
F0.007357952994141685
sg21
F0.02990365524932684
sg22
F0.0005453420331481199
sg23
F0.006873770578083403
sg24
F0.03871993924164217
ssS'BECK SALLY W'
p89
(dp90
g3
F0.12046117148157963
sg4
F0.24396037005445836
sg5
F1.0
sg6
F0.6046236491926908
sg7
F0.11742424242424243
sg8
F0.28755209277042937
sg9
F0.0022638617999442743
sg10
F0.10873468557623302
sg11
F0.1409706159488055
sg12
F0.32836144912021975
sg13
F0.15510718789407316
sg14
F0.03740282793091964
sg15
F0.025451559934318555
sg16
F0.2763888888888889
sg17
F0.2533027405444973
sg18
F0.3963166456754302
sg19
F0.09139073859377606
sg20
F0.02340617332166405
sg21
F0.11388151770941175
sg22
F0.0003664091379764786
sg23
F0.0010545939327920428
sg24
F0.02678275209375691
ssS'HAUG DAVID L'
p91
(dp92
g3
F0.058772859793267955
sg4
F0.21841086542877763
sg5
F0.0
sg6
F0.9999403462713422
sg7
F0.05018939393939394
sg8
F0.10726580902337379
sg9
F0.002020061298411814
sg10
F0.09657732599593882
sg11
F0.10463085404686714
sg12
F0.060297138948715884
sg13
F0.05546910466582598
sg14
F0.007378824474529333
sg15
F0.009852216748768473
sg16
F0.05377599822044267
sg17
F0.16352815333524048
sg18
F0.17242912869413504
sg19
F0.09721492360148658
sg20
F0.008694863718391465
sg21
F0.002327901282217879
sg22
F0.00014695155606774752
sg23
F0.0021893197166916083
sg24
F0.007388708215959745
ssS'ECHOLS JOHN B'
p93
(dp94
g3
F0.046846011131725415
sg4
F0.19444480895829233
sg5
F0.0
sg6
F0.9656203288490284
sg7
F0.01893939393939394
sg8
F0.01014676571842725
sg9
F0.0
sg10
F0.08904993620425677
sg11
F0.06022334855742453
sg12
F0.060297138948715884
sg13
F0.07944514501891552
sg14
F0.022018029761909728
sg15
F0.0
sg16
F0.0
sg17
F0.1722211972417199
sg18
F0.22612648217785505
sg19
F0.07926452614279388
sg20
F0.010210540988239192
sg21
F0.01888377145164147
sg22
F0.0005453420331481199
sg23
F0.0015391949929556713
sg24
F0.0012509016888186339
ssS'MENDELSOHN JOHN'
p95
(dp96
g3
F0.09117413199045851
sg4
F0.19444480895829233
sg5
F0.0
sg6
F0.9656203288490284
sg7
F0.04734848484848485
sg8
F0.0916832759557891
sg9
F0.014140429088882698
sg10
F0.08904993620425677
sg11
F0.08026978070110319
sg12
F0.060297138948715884
sg13
F0.07944514501891552
sg14
F0.016336843520359644
sg15
F0.003284072249589491
sg16
F0.009302325581395349
sg17
F0.15541963623096472
sg18
F0.22612648217785505
sg19
F0.07926452614279388
sg20
F0.010210540988239192
sg21
F0.019248452304650512
sg22
F0.0005453420331481199
sg23
F0.0015391949929556713
sg24
F0.0012509016888186339
ssS'HICKERSON GARY J'
p97
(dp98
g3
F0.058772859793267955
sg4
F0.19444480895829233
sg5
F0.0
sg6
F0.9656203288490284
sg7
F0.05018939393939394
sg8
F0.10726580902337379
sg9
F0.002020061298411814
sg10
F0.08904993620425677
sg11
F0.10463085404686714
sg12
F0.060297138948715884
sg13
F0.07944514501891552
sg14
F0.0026393284101973767
sg15
F0.009852216748768473
sg16
F0.05377599822044267
sg17
F0.1543417943746306
sg18
F0.22612648217785505
sg19
F0.07926452614279388
sg20
F0.010210540988239192
sg21
F0.00018977962474354786
sg22
F0.0005453420331481199
sg23
F0.0015391949929556713
sg24
F0.0012509016888186339
ssS'CLINE KENNETH W'
p99
(dp100
g3
F0.058772859793267955
sg4
F0.19444480895829233
sg5
F0.0
sg6
F0.9656203288490284
sg7
F0.05018939393939394
sg8
F0.10726580902337379
sg9
F0.002020061298411814
sg10
F0.08904993620425677
sg11
F0.10463085404686714
sg12
F0.060297138948715884
sg13
F0.07944514501891552
sg14
F0.0
sg15
F0.009852216748768473
sg16
F0.05377599822044267
sg17
F0.17379042511584583
sg18
F0.22612648217785505
sg19
F0.07926452614279388
sg20
F0.0009883386525706998
sg21
F0.0
sg22
F0.0005453420331481199
sg23
F0.0015391949929556713
sg24
F0.0012509016888186339
ssS'LEWIS RICHARD'
p101
(dp102
g3
F0.058772859793267955
sg4
F0.5082212453251098
sg5
F0.0
sg6
F0.9856691193197306
sg7
F0.05018939393939394
sg8
F0.10726580902337379
sg9
F0.002020061298411814
sg10
F0.08904993620425677
sg11
F0.10463085404686714
sg12
F0.060297138948715884
sg13
F0.07944514501891552
sg14
F0.021939928556622388
sg15
F0.009852216748768473
sg16
F0.05377599822044267
sg17
F0.2095357275956537
sg18
F0.15643857790149454
sg19
F0.07926452614279388
sg20
F0.006805237696595039
sg21
F0.02990365524932684
sg22
F0.0005360120032676038
sg23
F0.005636146156158322
sg24
F0.04491961998612511
ssS'HAYES ROBERT E'
p103
(dp104
g3
F0.010071561091969255
sg4
F0.21108413708636792
sg5
F0.0
sg6
F0.9656203288490284
sg7
F0.01893939393939394
sg8
F0.03188983511505707
sg9
F0.0022290331568682086
sg10
F0.1382514411410894
sg11
F0.22014659472666193
sg12
F0.060297138948715884
sg13
F0.09836065573770493
sg14
F0.01912850895196666
sg15
F0.04433497536945813
sg16
F0.6136363636363636
sg17
F0.16494107168276
sg18
F0.20838401088963532
sg19
F0.09262627860940285
sg20
F0.015124820097635522
sg21
F0.018429441708699108
sg22
F0.0003474761976646054
sg23
F0.0017476347266984923
sg24
F0.00587003885334044
ssS'KOPPER MICHAEL J'
p105
(dp106
g3
F0.029088258680095416
sg4
F0.1222360737484417
sg5
F0.0
sg6
F0.9656203288490284
sg7
F0.05303030303030303
sg8
F0.07881862656278311
sg9
F0.00048760100306492065
sg10
F0.08904993620425677
sg11
F0.2597374742621826
sg12
F0.0479249188026266
sg13
F0.07944514501891552
sg14
F0.11929960124848815
sg15
F0.008210180623973728
sg16
F0.2631578947368421
sg17
F0.36043024765832266
sg18
F0.07633998060823871
sg19
F0.07926452614279388
sg20
F0.01911408637988282
sg21
F0.06294601159833604
sg22
F0.006204759226033962
sg23
F0.002770714361956728
sg24
F0.14997760076110112
ssS'LEFF DANIEL P'
p107
(dp108
g3
F0.3014842300556586
sg4
F0.3649673031078451
sg5
F0.0
sg6
F0.9656203288490284
sg7
F0.07765151515151515
sg8
F0.10527269432868273
sg9
F1.0
sg10
F0.04696356876073477
sg11
F0.0409471710486817
sg12
F0.050085191494206996
sg13
F0.0416141235813367
sg14
F0.020753681310178136
sg15
F0.28078817733990147
sg16
F0.011901447661469933
sg17
F0.15723183630900145
sg18
F0.24723505353440509
sg19
F0.05858553039037002
sg20
F0.01049320901013131
sg21
F0.02465344473166317
sg22
F0.0003187563686295676
sg23
F0.002553733453615183
sg24
F0.0004504944966213878
ssS'LAVORATO JOHN J'
p109
(dp110
g3
F0.013318314338722503
sg4
F0.04388600922949063
sg5
F0.0
sg6
F0.9656203288490284
sg7
F0.04734848484848485
sg8
F0.02083710817177025
sg9
F0.003064920590693787
sg10
F0.022697278520141653
sg11
F0.4458395183902359
sg12
F0.060297138948715884
sg13
F0.02269861286254729
sg14
F0.015661499000766386
sg15
F0.031198686371100164
sg16
F0.3392857142857143
sg17
F0.18110841161190047
sg18
F0.259349952870998
sg19
F0.07526340277856432
sg20
F0.005320856401158964
sg21
F0.005292691105650911
sg22
F0.00022479471104754257
sg23
F0.00027843274362803736
sg24
F0.00023485174850650022
ssS'BERBERIAN DAVID'
p111
(dp112
g3
F0.12046117148157963
sg4
F0.3404413533670144
sg5
F1.0
sg6
F0.9253138171450525
sg7
F0.11742424242424243
sg8
F0.28755209277042937
sg9
F0.0022638617999442743
sg10
F0.15869063650516163
sg11
F0.1409706159488055
sg12
F0.20988371050769952
sg13
F0.15195460277427492
sg14
F0.6268065633738387
sg15
F0.025451559934318555
sg16
F0.2763888888888889
sg17
F0.2066960709387854
sg18
F0.25038598967753317
sg19
F0.10070766604071542
sg20
F0.0008781895689194376
sg21
F0.8956963262793332
sg22
F0.0005595442265968262
sg23
F0.0011106717909299662
sg24
F0.0002754898850133792
ssS'DETMERING TIMOTHY J'
p113
(dp114
g3
F0.06831433872250198
sg4
F0.001977123110906983
sg5
F0.0
sg6
F0.9656203288490284
sg7
F0.0
sg8
F0.003805037144410219
sg9
F0.007871273335190861
sg10
F0.07017043569927886
sg11
F0.0
sg12
F0.046409024368766386
sg13
F0.05422446406052964
sg14
F0.021536280207024548
sg15
F0.0
sg16
F0.0
sg17
F0.16086038245362366
sg18
F0.2228522093914102
sg19
F0.07926452614279388
sg20
F0.010182431583267787
sg21
F0.023938757608472756
sg22
F0.00036811171723392043
sg23
F0.0
sg24
F0.0001170880275126941
ssS'WAKEHAM JOHN'
p115
(dp116
g3
F0.058772859793267955
sg4
F0.9995319642193206
sg5
F0.0
sg6
F0.9897723824928579
sg7
F0.05018939393939394
sg8
F0.10726580902337379
sg9
F0.002020061298411814
sg10
F0.08904993620425677
sg11
F0.10463085404686714
sg12
F0.060297138948715884
sg13
F0.07944514501891552
sg14
F0.02185820609201201
sg15
F0.009852216748768473
sg16
F0.05377599822044267
sg17
F0.17379042511584583
sg18
F0.22612648217785505
sg19
F0.07926452614279388
sg20
F0.002206535180764669
sg21
F0.02990365524932684
sg22
F0.0005453420331481199
sg23
F0.0015391949929556713
sg24
F0.0012509016888186339
ssS'POWERS WILLIAM'
p117
(dp118
g3
F0.058772859793267955
sg4
F0.13953152680270325
sg5
F0.0
sg6
F0.9656203288490284
sg7
F0.05018939393939394
sg8
F0.10726580902337379
sg9
F0.002020061298411814
sg10
F0.1446071902257275
sg11
F0.10463085404686714
sg12
F0.060297138948715884
sg13
F0.11727616645649433
sg14
F0.48545265873774984
sg15
F0.009852216748768473
sg16
F0.05377599822044267
sg17
F0.6367693098264996
sg18
F0.23533171705313652
sg19
F0.04924930579297117
sg20
F0.03015880365368189
sg21
F0.44725106193463005
sg22
F0.008269767101417407
sg23
F0.0010163103390338204
sg24
F0.17659297392682258
ssS'GOLD JOSEPH'
p119
(dp120
g3
F0.058242777630532726
sg4
F0.10376396999322003
sg5
F0.0
sg6
F0.9656203288490284
sg7
F0.001893939393939394
sg8
F0.13063960862475085
sg9
F0.00027862914460852607
sg10
F0.05949226893902916
sg11
F0.004915666484815422
sg12
F0.09597571889742171
sg13
F0.03530895334174023
sg14
F0.033879708804365756
sg15
F0.013136288998357963
sg16
F0.5
sg17
F0.20506894318291224
sg18
F0.1788651408333416
sg19
F0.035055727672881516
sg20
F0.013660813534074976
sg21
F0.019250956300926665
sg22
F0.0007365441011186536
sg23
F0.0009949755856833063
sg24
F0.027550146833019828
ssS'BANNANTINE JAMES M'
p121
(dp122
g3
F0.1683673469387755
sg4
F0.15602650744701793
sg5
F1.0
sg6
F0.9253138171450525
sg7
F0.3768939393939394
sg8
F0.3960862475086066
sg9
F0.00919476177208136
sg10
F0.2018285667592789
sg11
F0.35242944654644326
sg12
F0.060297138948715884
sg13
F0.14880201765447668
sg14
F0.00346094739345721
sg15
F0.041050903119868636
sg16
F0.1736111111111111
sg17
F0.15723183630900145
sg18
F0.2158049156404368
sg19
F0.1355049203944802
sg20
F0.015828067004285306
sg21
F0.11388151770941175
sg22
F4.373267042705855e-05
sg23
F0.0012429573098990479
sg24
F4.671937783688701e-05
ssS'DUNCAN JOHN H'
p123
(dp124
g3
F0.058772859793267955
sg4
F0.19444480895829233
sg5
F0.0
sg6
F0.9656203288490284
sg7
F0.05018939393939394
sg8
F0.10726580902337379
sg9
F0.002020061298411814
sg10
F0.08904993620425677
sg11
F0.10463085404686714
sg12
F0.060297138948715884
sg13
F0.07944514501891552
sg14
F0.12454646015696207
sg15
F0.009852216748768473
sg16
F0.05377599822044267
sg17
F0.20472085289433764
sg18
F0.22612648217785505
sg19
F0.07926452614279388
sg20
F0.010210540988239192
sg21
F0.14918780697065395
sg22
F0.0005453420331481199
sg23
F0.0015391949929556713
sg24
F0.0012509016888186339
ssS'SHAPIRO RICHARD S'
p125
(dp126
g3
F0.058772859793267955
sg4
F0.19444480895829233
sg5
F0.0
sg6
F0.9656203288490284
sg7
F0.05018939393939394
sg8
F0.10726580902337379
sg9
F0.002020061298411814
sg10
F0.08904993620425677
sg11
F0.10463085404686714
sg12
F0.060297138948715884
sg13
F0.07944514501891552
sg14
F0.02185820609201201
sg15
F0.009852216748768473
sg16
F0.05377599822044267
sg17
F0.17379042511584583
sg18
F0.22612648217785505
sg19
F0.07926452614279388
sg20
F3.478188825386568e-05
sg21
F0.02990365524932684
sg22
F0.0005453420331481199
sg23
F0.0015391949929556713
sg24
F0.0012509016888186339
ssS'SHERRIFF JOHN R'
p127
(dp128
g3
F0.2040153723827193
sg4
F0.508229993657459
sg5
F0.0
sg6
F0.9656203288490284
sg7
F0.045454545454545456
sg8
F0.4484508063054901
sg9
F0.008637503482864309
sg10
F0.08676851841356766
sg11
F0.0352122231871472
sg12
F0.06952725172377586
sg13
F0.06683480453972258
sg14
F0.010949813394269228
sg15
F0.009852216748768473
sg16
F0.04411764705882353
sg17
F0.16224364546638456
sg18
F0.22296834389497122
sg19
F0.061030988068700075
sg20
F0.01522178837132939
sg21
F0.008088140901850362
sg22
F0.0001771509185083873
sg23
F0.0039516178876435794
sg24
F0.00023156980874109906
ssS'SHELBY REX'
p129
(dp130
g3
F0.20964749536178107
sg4
F0.7822365111650591
sg5
F0.0
sg6
F0.9656203288490284
sg7
F0.17803030303030304
sg8
F0.31310019931146943
sg9
F0.18591529674003904
sg10
F0.25849886811934164
sg11
F0.13427506985408258
sg12
F0.09558290622671121
sg13
F0.24337957124842372
sg14
F0.043050832858110864
sg15
F0.13628899835796388
sg16
F0.030958597538232
sg17
F0.1862600902996306
sg18
F0.27335091255612043
sg19
F0.11515831914749437
sg20
F0.029341100966500992
sg21
F0.041886995288614545
sg22
F0.0006158216138075448
sg23
F0.004965851014590757
sg24
F0.00011477136414888152
ssS'LEMAISTRE CHARLES'
p131
(dp132
g3
F0.8413066525311422
sg4
F0.1828620169280231
sg5
F0.0
sg6
F0.9656203288490284
sg7
F0.26515151515151514
sg8
F0.6589961949628556
sg9
F0.4699777096684314
sg10
F0.08904993620425677
sg11
F0.050505640283065145
sg12
F0.04546245221091085
sg13
F0.11727616645649433
sg14
F0.1260876721936781
sg15
F0.6354679802955665
sg16
F0.05725699067909454
sg17
F0.3878850989946899
sg18
F0.3635829204856763
sg19
F0.0984013751451067
sg20
F0.016873116936621402
sg21
F0.05877877947010722
sg22
F0.0013804834613680716
sg23
F0.0008585859416284274
sg24
F0.00011863246975523582
ssS'DEFFNER JOSEPH M'
p133
(dp134
g3
F0.16021733368672142
sg4
F0.367692408634604
sg5
F0.0
sg6
F0.9656203288490284
sg7
F0.04734848484848485
sg8
F0.4210907773147309
sg9
F0.0001393145723042631
sg10
F0.1281442736807864
sg11
F0.046475392220073075
sg12
F0.15022740386481176
sg13
F0.09836065573770493
sg14
F0.02031255902983289
sg15
F0.003284072249589491
sg16
F0.14285714285714285
sg17
F0.16086038245362366
sg18
F0.2233284508827573
sg19
F0.06908091252448684
sg20
F0.01945436371474622
sg21
F0.02218738691072051
sg22
F0.00034530384665426583
sg23
F0.0028500047296475014
sg24
F2.6062462842891514e-05
ssS'KISHKILL JOSEPH G'
p135
(dp136
g3
F0.15193479989398356
sg4
F0.19444480895829233
sg5
F0.0
sg6
F0.9656203288490284
sg7
F0.08333333333333334
sg8
F0.19423808660989308
sg9
F0.07390638060741155
sg10
F0.08904993620425677
sg11
F0.08614757808963333
sg12
F0.060297138948715884
sg13
F0.07944514501891552
sg14
F0.1485273955693404
sg15
F0.02463054187192118
sg16
F0.013979496738117428
sg17
F0.26779452526818787
sg18
F0.22612648217785505
sg19
F0.07926452614279388
sg20
F0.030240659863212158
sg21
F0.15161650866110474
sg22
F0.0005453420331481199
sg23
F0.0015391949929556713
sg24
F0.0012509016888186339
ssS'WHALLEY LAWRENCE G'
p137
(dp138
g3
F0.058772859793267955
sg4
F0.19444480895829233
sg5
F0.0
sg6
F0.9656203288490284
sg7
F0.05018939393939394
sg8
F0.10726580902337379
sg9
F0.002020061298411814
sg10
F0.08904993620425677
sg11
F0.10463085404686714
sg12
F0.060297138948715884
sg13
F0.07944514501891552
sg14
F0.002905368905519737
sg15
F0.009852216748768473
sg16
F0.05377599822044267
sg17
F0.17379042511584583
sg18
F0.22612648217785505
sg19
F0.07926452614279388
sg20
F0.010210540988239192
sg21
F0.0027786497281606323
sg22
F0.0005453420331481199
sg23
F0.0015391949929556713
sg24
F0.0012509016888186339
ssS'MCCARTY DANNY J'
p139
(dp140
g3
F0.05930294195600317
sg4
F0.19444480895829233
sg5
F0.0
sg6
F0.9656203288490284
sg7
F0.01893939393939394
sg8
F0.1335386845443015
sg9
F0.0009752020061298412
sg10
F0.08904993620425677
sg11
F0.048330502413731456
sg12
F0.060297138948715884
sg13
F0.07944514501891552
sg14
F0.01819926939669067
sg15
F0.0
sg16
F0.0
sg17
F0.17379042511584583
sg18
F0.22612648217785505
sg19
F0.07926452614279388
sg20
F0.010210540988239192
sg21
F0.02466704201376738
sg22
F0.0005453420331481199
sg23
F0.0015391949929556713
sg24
F0.0012509016888186339
ssS'MCCONNELL MICHAEL S'
p141
(dp142
g3
F0.058772859793267955
sg4
F0.19444480895829233
sg5
F0.0
sg6
F0.9656203288490284
sg7
F0.05018939393939394
sg8
F0.10726580902337379
sg9
F0.002020061298411814
sg10
F0.08904993620425677
sg11
F0.10463085404686714
sg12
F0.060297138948715884
sg13
F0.07944514501891552
sg14
F0.02185820609201201
sg15
F0.009852216748768473
sg16
F0.05377599822044267
sg17
F0.17379042511584583
sg18
F0.22612648217785505
sg19
F0.07926452614279388
sg20
F0.010210540988239192
sg21
F0.02990365524932684
sg22
F0.0005453420331481199
sg23
F0.0015391949929556713
sg24
F0.0012509016888186339
ssS'DELAINEY DAVID W'
p143
(dp144
g3
F0.058772859793267955
sg4
F0.004947181943442031
sg5
F0.0
sg6
F0.9677610128917702
sg7
F0.05018939393939394
sg8
F0.10726580902337379
sg9
F0.002020061298411814
sg10
F0.08904993620425677
sg11
F0.10463085404686714
sg12
F0.060297138948715884
sg13
F0.07944514501891552
sg14
F0.02185820609201201
sg15
F0.009852216748768473
sg16
F0.05377599822044267
sg17
F0.17379042511584583
sg18
F0.22612648217785505
sg19
F0.07926452614279388
sg20
F1.0921242536124955e-05
sg21
F0.02990365524932684
sg22
F0.0005453420331481199
sg23
F0.0015391949929556713
sg24
F0.0012509016888186339
ssS'SULLIVAN-SHAKLOVITZ COLLEEN'
p145
(dp146
g3
F0.058772859793267955
sg4
F0.07158760361306125
sg5
F0.0
sg6
F0.9656203288490284
sg7
F0.05018939393939394
sg8
F0.10726580902337379
sg9
F0.002020061298411814
sg10
F0.07313022077061147
sg11
F0.10463085404686714
sg12
F0.060297138948715884
sg13
F0.05422446406052964
sg14
F0.011307829807566077
sg15
F0.009852216748768473
sg16
F0.05377599822044267
sg17
F0.1794420697143368
sg18
F0.2151864318889142
sg19
F0.0744888660297655
sg20
F0.010737184354001986
sg21
F0.02990365524932684
sg22
F0.0001903731876313169
sg23
F0.0005636936945887898
sg24
F0.03437050030372422
ssS'WROBEL BRUCE'
p147
(dp148
g3
F0.058772859793267955
sg4
F0.19444480895829233
sg5
F0.0
sg6
F0.9656203288490284
sg7
F0.05018939393939394
sg8
F0.10726580902337379
sg9
F0.002020061298411814
sg10
F0.08904993620425677
sg11
F0.10463085404686714
sg12
F0.060297138948715884
sg13
F0.07944514501891552
sg14
F0.02185820609201201
sg15
F0.009852216748768473
sg16
F0.05377599822044267
sg17
F0.17379042511584583
sg18
F0.22612648217785505
sg19
F0.07926452614279388
sg20
F0.001829235702768197
sg21
F0.02990365524932684
sg22
F0.0005453420331481199
sg23
F0.0015391949929556713
sg24
F0.018299806548956358
ssS'LINDHOLM TOD A'
p149
(dp150
g3
F0.5465147097800158
sg4
F0.02460905889814754
sg5
F0.0
sg6
F0.9656203288490284
sg7
F0.4753787878787879
sg8
F0.664431962312013
sg9
F0.11953190303705769
sg10
F0.45852791640419016
sg11
F0.13905683579489414
sg12
F0.060297138948715884
sg13
F0.38209331651954603
sg14
F0.012028195938855322
sg15
F0.3185550082101806
sg16
F0.11226851851851852
sg17
F0.17681437672202482
sg18
F0.243940974863632
sg19
F0.16096222123789727
sg20
F0.03351684915490006
sg21
F0.002263991144704518
sg22
F0.00017936865855073777
sg23
F0.00015972672664790215
sg24
F0.00906616554664037
ssS'MEYER JEROME J'
p151
(dp152
g3
F0.21680360455870656
sg4
F0.3552522800341185
sg5
F0.0
sg6
F0.9656203288490284
sg7
F0.17424242424242425
sg8
F0.39626743975357853
sg9
F0.19016439119531905
sg10
F0.11135769503312082
sg11
F0.1271546627637205
sg12
F0.09558290622671121
sg13
F0.12988650693568726
sg14
F0.06398993078328999
sg15
F0.3185550082101806
sg16
F0.07075127644055434
sg17
F0.23509822307537454
sg18
F0.3282024089356948
sg19
F0.08889177946754712
sg20
F0.02028991119079251
sg21
F0.047160294981243175
sg22
F0.0007688638809203276
sg23
F0.0018679529879406071
sg24
F5.1931870405465315e-05
ssS'LAY KENNETH L'
p153
(dp154
g3
F0.058772859793267955
sg4
F0.19444480895829233
sg5
F0.0
sg6
F0.993102145165208
sg7
F0.05018939393939394
sg8
F0.10726580902337379
sg9
F0.002020061298411814
sg10
F0.08904993620425677
sg11
F0.10463085404686714
sg12
F0.060297138948715884
sg13
F0.07944514501891552
sg14
F0.009680623034004581
sg15
F0.009852216748768473
sg16
F0.05377599822044267
sg17
F0.15251381650683882
sg18
F0.22612648217785505
sg19
F0.07926452614279388
sg20
F0.0008072835707383895
sg21
F0.012475287958843851
sg22
F0.0005453420331481199
sg23
F0.0015391949929556713
sg24
F0.0012509016888186339
ssS'BUTTS ROBERT H'
p155
(dp156
g3
F0.188510469122714
sg4
F0.06001355991514118
sg5
F0.0
sg6
F0.12082905553305456
sg7
F0.08901515151515152
sg8
F0.2545751041855408
sg9
F0.1520618556701031
sg10
F0.8406060077318622
sg11
F0.07451757408683668
sg12
F0.046409024368766386
sg13
F0.5176544766708702
sg14
F0.03608308234920695
sg15
F0.10673234811165845
sg16
F0.029612756264236904
sg17
F0.15723183630900145
sg18
F0.18138408921290516
sg19
F0.16835598667156715
sg20
F0.04330155824694069
sg21
F0.050262076693970224
sg22
F0.000775070031358869
sg23
F0.0005612989899382663
sg24
F1.4479146023828618e-05
ssS'OLSON CINDY K'
p157
(dp158
g3
F0.04075006626027034
sg4
F0.19444480895829233
sg5
F0.0
sg6
F0.9656203288490284
sg7
F0.0
sg8
F0.022649030621489402
sg9
F0.00048760100306492065
sg10
F0.08904993620425677
sg11
F0.0
sg12
F0.060297138948715884
sg13
F0.07944514501891552
sg14
F0.005395961209477015
sg15
F0.0
sg16
F0.0
sg17
F0.15928035773431862
sg18
F0.22612648217785505
sg19
F0.07926452614279388
sg20
F0.010210540988239192
sg21
F0.001637904726959733
sg22
F0.0005453420331481199
sg23
F0.0015391949929556713
sg24
F0.0012509016888186339
ssS'MCDONALD REBECCA'
p159
(dp160
g3
F0.058772859793267955
sg4
F0.19444480895829233
sg5
F0.0
sg6
F0.9656203288490284
sg7
F0.05018939393939394
sg8
F0.10726580902337379
sg9
F0.002020061298411814
sg10
F0.08904993620425677
sg11
F0.10463085404686714
sg12
F0.060297138948715884
sg13
F0.07944514501891552
sg14
F0.008469230413834057
sg15
F0.009852216748768473
sg16
F0.05377599822044267
sg17
F0.15882452932665
sg18
F0.22612648217785505
sg19
F0.07926452614279388
sg20
F0.010210540988239192
sg21
F0.01074156169996773
sg22
F0.0005453420331481199
sg23
F0.0015391949929556713
sg24
F0.0012509016888186339
ssS'CUMBERLAND MICHAEL S'
p161
(dp162
g3
F0.10270341902994963
sg4
F0.16801609693152245
sg5
F0.0
sg6
F0.9656203288490284
sg7
F0.043560606060606064
sg8
F0.2417104547925349
sg9
F0.0019504040122596822
sg10
F0.1802257769391295
sg11
F0.06585218922533068
sg12
F0.059197302870191953
sg13
F0.11727616645649433
sg14
F0.038407910490444445
sg15
F0.013136288998357963
sg16
F0.2
sg17
F0.17174596330431602
sg18
F0.1918902105815638
sg19
F0.08204929985771352
sg20
F0.01977068384118157
sg21
F0.042581009884408834
sg22
F0.0007811737065992028
sg23
F0.0015087758676357518
sg24
F0.0410904650286634
ssS'GAHN ROBERT S'
p163
(dp164
g3
F0.05353829843625762
sg4
F0.4204448526999541
sg5
F0.0
sg6
F0.9146103969313437
sg7
F0.3560606060606061
sg8
F0.1395180286283747
sg9
F0.0006965728615213152
sg10
F0.10549816527655782
sg11
F1.0
sg12
F0.060297138948715884
sg13
F0.09205548549810845
sg14
F0.02288882056417959
sg15
F0.0180623973727422
sg16
F0.5
sg17
F0.1681174171596938
sg18
F0.25038598967753317
sg19
F0.1649428085760062
sg20
F0.008455146790045486
sg21
F0.022205060465832406
sg22
F0.0003489708515821324
sg23
F0.0029070947554885053
sg24
F8.581307210122428e-05
ssS'MCCLELLAN GEORGE'
p165
(dp166
g3
F0.058772859793267955
sg4
F0.25186011416573717
sg5
F0.0
sg6
F0.9656203288490284
sg7
F0.05018939393939394
sg8
F0.10726580902337379
sg9
F0.002020061298411814
sg10
F0.021848371481168728
sg11
F0.10463085404686714
sg12
F0.020837786293753352
sg13
F0.016393442622950817
sg14
F0.06323575266888337
sg15
F0.009852216748768473
sg16
F0.05377599822044267
sg17
F0.1796213261358972
sg18
F0.21244511744439276
sg19
F0.031343993555802654
sg20
F0.008456392449008492
sg21
F0.07413214910226347
sg22
F0.0011748707790766944
sg23
F0.0020479198989720115
sg24
F0.0002536746383374774
ssS'HERMANN ROBERT J'
p167
(dp168
g3
F0.007421150278293135
sg4
F0.19444480895829233
sg5
F0.0
sg6
F0.9656203288490284
sg7
F0.0
sg8
F0.003805037144410219
sg9
F0.0
sg10
F0.08904993620425677
sg11
F0.0
sg12
F0.0773586834747413
sg13
F0.07944514501891552
sg14
F0.04602596186598285
sg15
F0.0
sg16
F0.0
sg17
F0.17379042511584583
sg18
F0.22612648217785505
sg19
F0.07926452614279388
sg20
F0.009331569261366239
sg21
F0.06449217106638708
sg22
F0.0005453420331481199
sg23
F0.0015391949929556713
sg24
F0.0012509016888186339
ssS'SCRIMSHAW MATTHEW'
p169
(dp170
g3
F0.10694407633183142
sg4
F0.06360475034446558
sg5
F0.0
sg6
F0.9656203288490284
sg7
F0.38636363636363635
sg8
F0.19224497191520204
sg9
F0.014558372805795488
sg10
F0.08904993620425677
sg11
F0.5617097673707934
sg12
F0.060297138948715884
sg13
F0.07944514501891552
sg14
F0.16141899738274498
sg15
F0.08045977011494253
sg16
F0.22171945701357465
sg17
F0.17193040221156242
sg18
F0.08675247416007296
sg19
F0.07926452614279388
sg20
F0.0010755251237101093
sg21
F0.2185393030895034
sg22
F0.007408078511433561
sg23
F0.0012646380564738165
sg24
F0.0012509016888186339
ssS'GATHMANN WILLIAM D'
p171
(dp172
g3
F0.05612244897959183
sg4
F0.11214049821752728
sg5
F0.0
sg6
F0.9656203288490284
sg7
F0.20075757575757577
sg8
F0.10817177024823338
sg9
F0.0
sg10
F0.13391764502438286
sg11
F0.5395052720768218
sg12
F0.20408824613476467
sg13
F0.08575031525851198
sg14
F0.03427995968032906
sg15
F0.0049261083743842365
sg16
F0.25
sg17
F0.16086038245362366
sg18
F0.18924972609362242
sg19
F0.05668366463037972
sg20
F0.020211685739169923
sg21
F0.042177313275469086
sg22
F0.0007044953353320566
sg23
F0.0010163876523254871
sg24
F0.0001511622844887708
ssS'HAEDICKE MARK E'
p173
(dp174
g3
F0.21322554996024382
sg4
F0.37984821643374234
sg5
F0.0
sg6
F0.039210196049553
sg7
F0.45833333333333337
sg8
F0.5394093132813915
sg9
F0.0006269155753691836
sg10
F0.06476675891897034
sg11
F0.33998700665908727
sg12
F0.304910099284683
sg13
F0.24337957124842372
sg14
F0.29837301090888096
sg15
F0.009852216748768473
sg16
F0.2857142857142857
sg17
F0.3911715435008635
sg18
F0.9546931393316955
sg19
F0.009424166550069961
sg20
F0.1665936765233214
sg21
F0.3036891231555338
sg22
F0.001249790135490815
sg23
F0.0006741725321488504
sg24
F0.7169705340690927
ssS'BOWEN JR RAYMOND M'
p175
(dp176
g3
F0.011131725417439703
sg4
F0.09945104214509108
sg5
F1.0
sg6
F0.9990483945868666
sg7
F0.02462121212121212
sg8
F0.016126109802500455
sg9
F0.0018807467261075508
sg10
F0.025906467485231413
sg11
F0.265839243498818
sg12
F0.20988371050769952
sg13
F0.016393442622950817
sg14
F0.05162754143488658
sg15
F0.022988505747126436
sg16
F0.358974358974359
sg17
F0.20002724835807337
sg18
F0.19028683421844633
sg19
F0.006281121956709398
sg20
F0.01934862754695615
sg21
F0.04720065008401927
sg22
F0.0010668128288204338
sg23
F0.0008947264764135093
sg24
F0.15186905987001395
ssS'GILLIS JOHN'
p177
(dp178
g3
F0.058772859793267955
sg4
F0.3429521247512193
sg5
F0.0
sg6
F0.8858598685391658
sg7
F0.05018939393939394
sg8
F0.10726580902337379
sg9
F0.002020061298411814
sg10
F0.07147119235061106
sg11
F0.10463085404686714
sg12
F0.060297138948715884
sg13
F0.03530895334174023
sg14
F0.13677024478756847
sg15
F0.009852216748768473
sg16
F0.05377599822044267
sg17
F0.2529560322521056
sg18
F0.15346319391491214
sg19
F0.30915745570581654
sg20
F0.002043044855937851
sg21
F0.1422927620619175
sg22
F0.0035502499292652282
sg23
F0.0038728420672673536
sg24
F0.0012509016888186339
ssS'FITZGERALD JAY L'
p179
(dp180
g3
F0.14073681420620193
sg4
F0.22297749491503183
sg5
F0.0
sg6
F0.6337526505236255
sg7
F0.12121212121212122
sg8
F0.25348795071570934
sg9
F0.062482585678461974
sg10
F0.054015346307685674
sg11
F0.1350151696957281
sg12
F0.08170996044096669
sg13
F0.09205548549810845
sg14
F0.18057482853286244
sg15
F0.03284072249589491
sg16
F0.022002200220022004
sg17
F0.2528978156628998
sg18
F0.4428397676949822
sg19
F0.26993846662174925
sg20
F0.005318992740849971
sg21
F0.25705641436642823
sg22
F0.0016277697005679978
sg23
F0.0008592144031420003
sg24
F0.0007220267483882538
ssS'MORAN MICHAEL P'
p181
(dp182
g3
F0.15226610124569306
sg4
F0.5990857992695142
sg5
F0.0
sg6
F0.9656203288490284
sg7
F0.10984848484848485
sg8
F0.4033339373074832
sg9
F0.0025076623014767345
sg10
F0.2767495999482933
sg11
F0.11331707096715907
sg12
F0.12324921087795601
sg13
F0.31904161412358134
sg14
F0.03472641212889136
sg15
F0.04269293924466338
sg16
F0.5416666666666666
sg17
F0.1821523369785786
sg18
F0.3330728559455014
sg19
F0.11047969935157718
sg20
F0.03958707081315314
sg21
F0.032050249731410005
sg22
F0.0004043454015484064
sg23
F0.0031152915799022504
sg24
F0.028702590328876426
ssS'REDMOND BRIAN L'
p183
(dp184
g3
F0.055724887357540415
sg4
F0.1378081053299215
sg5
F0.0
sg6
F0.9656203288490284
sg7
F0.013257575757575758
sg8
F0.13154556984961044
sg9
F0.003831150738367233
sg10
F0.005832967177206938
sg11
F0.03586575368431029
sg12
F0.060297138948715884
sg13
F0.029003783102143764
sg14
F0.0014829056927844436
sg15
F0.0
sg16
F0.0
sg17
F0.17379042511584583
sg18
F0.589279074813127
sg19
F0.02900469860017489
sg20
F0.013388825347943207
sg21
F0.0007428425231792169
sg22
F0.0
sg23
F0.0003889151100931718
sg24
F0.0012509016888186339
ssS'BAZELIDES PHILIP J'
p185
(dp186
g3
F0.20116618075801748
sg4
F0.3762920193338145
sg5
F1.0
sg6
F0.9253138171450525
sg7
F0.125
sg8
F0.3795977532161623
sg9
F0.21294232376706607
sg10
F0.32617874785988626
sg11
F0.09817982953959181
sg12
F0.24147104996226515
sg13
F0.3694829760403531
sg14
F0.07442611533413919
sg15
F1.0
sg16
F0.198435972629521
sg17
F0.22616586349655168
sg18
F0.3283149423693779
sg19
F0.11002459348765481
sg20
F0.045846342945652235
sg21
F0.06661293944734298
sg22
F0.0008963947371475311
sg23
F0.0019789079059739346
sg24
F0.00016013935502354453
ssS'BELDEN TIMOTHY N'
p187
(dp188
g3
F0.05406838059899284
sg4
F0.550401329746517
sg5
F1.0
sg6
F0.9253138171450525
sg7
F0.09848484848484848
sg8
F0.15799963761551006
sg9
F0.00027862914460852607
sg10
F0.07702644586777999
sg11
F0.2740610757719773
sg12
F0.00035459518920706763
sg13
F0.06683480453972258
sg14
F0.016735894091266437
sg15
F0.009852216748768473
sg16
F0.375
sg17
F0.17265209213492153
sg18
F0.24712161983325248
sg19
F0.07877627699158178
sg20
F0.012284090004364152
sg21
F0.011106184320505233
sg22
F0.0002535680408645951
sg23
F0.003861120343067237
sg24
F0.019335065489660103
ssS'DURAN WILLIAM D'
p189
(dp190
g3
F0.058772859793267955
sg4
F0.19444480895829233
sg5
F0.0
sg6
F0.9656203288490284
sg7
F0.05018939393939394
sg8
F0.10726580902337379
sg9
F0.002020061298411814
sg10
F0.08904993620425677
sg11
F0.10463085404686714
sg12
F0.060297138948715884
sg13
F0.07944514501891552
sg14
F0.004752618043339598
sg15
F0.009852216748768473
sg16
F0.05377599822044267
sg17
F0.18809981513497726
sg18
F0.22612648217785505
sg19
F0.07926452614279388
sg20
F0.010210540988239192
sg21
F0.02990365524932684
sg22
F0.0005453420331481199
sg23
F0.0015391949929556713
sg24
F0.0012509016888186339
ssS'THORN TERENCE H'
p191
(dp192
g3
F0.03153988868274582
sg4
F0.19444480895829233
sg5
F0.0
sg6
F0.9656203288490284
sg7
F0.0
sg8
F0.05399528900163073
sg9
F0.0011841738645862357
sg10
F0.08034273219121932
sg11
F0.0
sg12
F0.060297138948715884
sg13
F0.06683480453972258
sg14
F0.0770868661379723
sg15
F0.0
sg16
F0.0
sg17
F0.18244008010049875
sg18
F0.23833410906380287
sg19
F0.09389284485263849
sg20
F0.010549620945494744
sg21
F0.09253037820621801
sg22
F0.0012805797188106694
sg23
F0.0015391949929556713
sg24
F0.0012509016888186339
ssS'FASTOW ANDREW S'
p193
(dp194
g3
F0.04353299761463027
sg4
F0.18143166458893775
sg5
F0.0
sg6
F0.9656203288490284
sg7
F0.2178030303030303
sg8
F0.09965573473455336
sg9
F0.004318751741432154
sg10
F0.10712607102588152
sg11
F0.7410677036772156
sg12
F0.05242611073495565
sg13
F0.06683480453972258
sg14
F0.004136047783208469
sg15
F0.006568144499178982
sg16
F0.05405405405405406
sg17
F0.15814199596180714
sg18
F0.1851346034906971
sg19
F0.08361775737652435
sg20
F0.011669613197302867
sg21
F0.00041033511069512424
sg22
F6.626747834947618e-05
sg23
F0.0016905176286330338
sg24
F0.002466377733698967
ssS'FOY JOE'
p195
(dp196
g3
F0.16664457990988601
sg4
F0.014552850862804279
sg5
F0.0
sg6
F0.9656203288490284
sg7
F0.5776515151515151
sg8
F0.3442652654466389
sg9
F0.0035525215937587075
sg10
F0.08598841720238638
sg11
F0.5456160451341783
sg12
F0.09597571889742171
sg13
F0.06683480453972258
sg14
F0.0388406509795476
sg15
F0.022988505747126436
sg16
F0.2222222222222222
sg17
F0.1681174171596938
sg18
F0.22472746653030617
sg19
F0.06976750681547757
sg20
F0.013618393535435544
sg21
F0.04503507181621459
sg22
F0.0006743997800376652
sg23
F9.722399204133976e-05
sg24
F4.546451851482187e-05
ssS'CALGER CHRISTOPHER F'
p197
(dp198
g3
F0.033726477604028623
sg4
F0.2456225532007961
sg5
F0.0
sg6
F0.9987809517937933
sg7
F0.07386363636363637
sg8
F0.08389200942199673
sg9
F0.0011841738645862357
sg10
F0.08904993620425677
sg11
F0.31703443350124055
sg12
F0.060297138948715884
sg13
F0.07944514501891552
sg14
F0.10757133916468656
sg15
F0.0
sg16
F0.0
sg17
F0.2511802247402193
sg18
F0.0
sg19
F0.07926452614279388
sg20
F0.008845617421728319
sg21
F0.11771321433663649
sg22
F1.0
sg23
F1.0
sg24
F0.08345017199777562
ssS'RICE KENNETH D'
p199
(dp200
g3
F6.626027034190279e-05
sg4
F0.19444480895829233
sg5
F0.0
sg6
F0.9656203288490284
sg7
F0.0
sg8
F0.0001811922449719152
sg9
F0.00027862914460852607
sg10
F0.08904993620425677
sg11
F0.0
sg12
F0.060297138948715884
sg13
F0.07944514501891552
sg14
F0.0018593945974594915
sg15
F0.0016420361247947454
sg16
F0.0625
sg17
F0.15269871607947952
sg18
F0.22612648217785505
sg19
F0.07926452614279388
sg20
F0.010210540988239192
sg21
F0.02990365524932684
sg22
F0.0005453420331481199
sg23
F0.0015391949929556713
sg24
F0.0012509016888186339
ssS'KAMINSKI WINCENTY J'
p201
(dp202
g3
F0.058772859793267955
sg4
F0.2108741771099884
sg5
F0.0
sg6
F0.9203188877119883
sg7
F0.05018939393939394
sg8
F0.10726580902337379
sg9
F0.002020061298411814
sg10
F0.09697167338220573
sg11
F0.10463085404686714
sg12
F0.015912853110321853
sg13
F0.07944514501891552
sg14
F0.014489614726693287
sg15
F0.009852216748768473
sg16
F0.05377599822044267
sg17
F0.17765111782761256
sg18
F0.2360375267491972
sg19
F0.09202055758579757
sg20
F0.012527205940113062
sg21
F0.005363647372220415
sg22
F0.0002274005525608182
sg23
F0.0015393131574450258
sg24
F0.04019787394011444
ssS'LOCKHART EUGENE E'
p203
(dp204
g3
F0.47720646700238534
sg4
F0.2160356931959845
sg5
F0.0
sg6
F0.9656203288490284
sg7
F1.0
sg8
F0.7175212900887842
sg9
F0.1792281972694344
sg10
F0.9606033830468919
sg11
F0.33466892163213385
sg12
F0.3873276741254451
sg13
F1.0
sg14
F0.10601820545401935
sg15
F0.6748768472906403
sg16
F0.15899419729206962
sg17
F0.2080272211788151
sg18
F0.30502052159696647
sg19
F0.13644251416642628
sg20
F0.1006725061678224
sg21
F0.12099863214835979
sg22
F0.0013814222845250094
sg23
F0.0012165110574076932
sg24
F0.0001496178422462291
ssS'COX DAVID'
p205
(dp206
g3
F0.03087728597932679
sg4
F0.19444480895829233
sg5
F0.0
sg6
F0.9656203288490284
sg7
F0.0
sg8
F0.0835296249320529
sg9
F0.0011841738645862357
sg10
F0.08904993620425677
sg11
F0.0
sg12
F0.060297138948715884
sg13
F0.07944514501891552
sg14
F0.02185820609201201
sg15
F0.0016420361247947454
sg16
F0.034482758620689655
sg17
F0.0
sg18
F0.22612648217785505
sg19
F0.07926452614279388
sg20
F0.1492486962464964
sg21
F0.07573729806398287
sg22
F0.0005453420331481199
sg23
F0.0015391949929556713
sg24
F0.013307493527580408
ssS'OVERDYKE JR JERE C'
p207
(dp208
g3
F0.058772859793267955
sg4
F0.15252717450735953
sg5
F0.0
sg6
F0.9656203288490284
sg7
F0.05018939393939394
sg8
F0.10726580902337379
sg9
F0.002020061298411814
sg10
F0.03716814447809537
sg11
F0.10463085404686714
sg12
F0.060297138948715884
sg13
F0.032156368221942
sg14
F0.005138994206615752
sg15
F0.009852216748768473
sg16
F0.05377599822044267
sg17
F0.16198146927384854
sg18
F0.24002571163892794
sg19
F0.08764707196567822
sg20
F0.006067749652869126
sg21
F0.02990365524932684
sg22
F6.701790932138974e-05
sg23
F0.0010903140112134648
sg24
F0.00013600744498383017
ssS'PEREIRA PAULO V. FERRAZ'
p209
(dp210
g3
F0.1414656771799629
sg4
F0.2512171117380749
sg5
F0.0
sg6
F0.9656203288490284
sg7
F0.020833333333333336
sg8
F0.07120855227396268
sg9
F0.00229869044302034
sg10
F0.05896178914480188
sg11
F0.023089280167727908
sg12
F0.01098791992689035
sg13
F0.0416141235813367
sg14
F0.013051873054679329
sg15
F0.003284072249589491
sg16
F0.044444444444444446
sg17
F0.16131770802382378
sg18
F0.20598749888591902
sg19
F0.08285166298125549
sg20
F0.007841336265685344
sg21
F0.011564765033869898
sg22
F0.00023304827802438712
sg23
F0.0021071970178364523
sg24
F3.166106597210525e-05
ssS'STABLER FRANK'
p211
(dp212
g3
F0.20739464617015635
sg4
F0.19444480895829233
sg5
F0.0
sg6
F0.9656203288490284
sg7
F0.05303030303030303
sg8
F0.3806849066859938
sg9
F0.005572582892170521
sg10
F0.13138209774349202
sg11
F0.04042352909759729
sg12
F0.09558290622671121
sg13
F0.18032786885245902
sg14
F0.06455352486770655
sg15
F0.03776683087027914
sg16
F0.25
sg17
F0.22445426122399717
sg18
F0.3855872579743442
sg19
F0.054284784842534996
sg20
F0.04186225242467759
sg21
F0.05334889266151191
sg22
F0.00065984830124677
sg23
F0.0015391949929556713
sg24
F0.17878695065999325
ssS'SKILLING JEFFREY K'
p213
(dp214
g3
F0.036840710310098064
sg4
F0.19444480895829233
sg5
F0.0
sg6
F0.9656203288490284
sg7
F0.07386363636363637
sg8
F0.10527269432868273
sg9
F0.0009055447199777098
sg10
F0.08904993620425677
sg11
F0.29272673631599044
sg12
F0.060297138948715884
sg13
F0.07944514501891552
sg14
F0.038177045036523964
sg15
F0.029556650246305417
sg16
F0.72
sg17
F0.17335351278093103
sg18
F0.22612648217785505
sg19
F0.07926452614279388
sg20
F0.010210540988239192
sg21
F0.04143776088693179
sg22
F0.0005453420331481199
sg23
F0.0015391949929556713
sg24
F0.0012509016888186339
ssS'BLAKE JR. NORMAN P'
p215
(dp216
g3
F0.08421680360455869
sg4
F0.14488550620038057
sg5
F1.0
sg6
F0.9716953047377904
sg7
F0.06628787878787878
sg8
F0.22757745968472548
sg9
F0.004876010030649206
sg10
F0.10291671717869123
sg11
F0.12126297744168163
sg12
F0.20988371050769952
sg13
F0.07944514501891552
sg14
F0.03993516643785937
sg15
F0.07881773399014778
sg16
F0.5853658536585366
sg17
F0.16630821140672009
sg18
F0.223918126075257
sg19
F0.11100675312232311
sg20
F0.010611778362121654
sg21
F0.047516328312228774
sg22
F0.0006964867151728884
sg23
F0.0011106717909299662
sg24
F0.00018803584302945435
ssS'SHERRICK JEFFREY B'
p217
(dp218
g3
F1.0
sg4
F0.6019683747785578
sg5
F0.0
sg6
F0.9656203288490284
sg7
F0.14015151515151517
sg8
F0.8198949084979162
sg9
F0.08379771524101422
sg10
F0.086675316007616
sg11
F0.02247532664890457
sg12
F0.060297138948715884
sg13
F0.07313997477931905
sg14
F0.020976734609154533
sg15
F0.10673234811165845
sg16
F0.053497942386831275
sg17
F0.17180826829889628
sg18
F0.24181094203087738
sg19
F0.10666714243718904
sg20
F0.010210540988239192
sg21
F0.017602278566732334
sg22
F0.00032969009232244916
sg23
F0.004317422158523396
sg24
F6.785893103167679e-05
ssS'PRENTICE JAMES'
p219
(dp220
g3
F0.058772859793267955
sg4
F0.12157557465608118
sg5
F0.0
sg6
F0.9713385240640001
sg7
F0.05018939393939394
sg8
F0.10726580902337379
sg9
F0.002020061298411814
sg10
F0.08904993620425677
sg11
F0.10463085404686714
sg12
F0.060297138948715884
sg13
F0.07944514501891552
sg14
F0.02185820609201201
sg15
F0.009852216748768473
sg16
F0.05377599822044267
sg17
F0.17379042511584583
sg18
F0.22612648217785505
sg19
F0.07926452614279388
sg20
F0.00026838639703718564
sg21
F0.02990365524932684
sg22
F0.0005453420331481199
sg23
F0.0015391949929556713
sg24
F0.0012509016888186339
ssS'GRAY RODNEY'
p221
(dp222
g3
F0.0
sg4
F0.19444480895829233
sg5
F0.0
sg6
F0.9656203288490284
sg7
F0.0
sg8
F0.0
sg9
F6.965728615213149e-05
sg10
F0.08904993620425677
sg11
F0.0
sg12
F0.060297138948715884
sg13
F0.07944514501891552
sg14
F0.007883908773479265
sg15
F0.0
sg16
F0.0
sg17
F0.17379042511584583
sg18
F0.22612648217785505
sg19
F0.07926452614279388
sg20
F0.0017536464131370864
sg21
F0.009903858480652509
sg22
F0.0005453420331481199
sg23
F0.0015391949929556713
sg24
F0.0012509016888186339
ssS'PICKERING MARK R'
p223
(dp224
g3
F0.058772859793267955
sg4
F0.19444480895829233
sg5
F0.0
sg6
F0.9656203288490284
sg7
F0.05018939393939394
sg8
F0.10726580902337379
sg9
F0.002020061298411814
sg10
F0.08904993620425677
sg11
F0.10463085404686714
sg12
F0.060297138948715884
sg13
F0.07944514501891552
sg14
F0.008398025876583292
sg15
F0.009852216748768473
sg16
F0.05377599822044267
sg17
F0.1766508405070452
sg18
F0.22612648217785505
sg19
F0.07926452614279388
sg20
F0.007476396814608624
sg21
F0.02990365524932684
sg22
F0.0005453420331481199
sg23
F0.0015391949929556713
sg24
F0.0012509016888186339
ssS'NOLES JAMES L'
p225
(dp226
g3
F0.011595547309833023
sg4
F0.19444480895829233
sg5
F0.0
sg6
F0.9656203288490284
sg7
F0.0
sg8
F0.0036238448994383035
sg9
F0.0011145165784341043
sg10
F0.08904993620425677
sg11
F0.0
sg12
F0.060297138948715884
sg13
F0.07944514501891552
sg14
F0.020343461798999724
sg15
F0.0
sg16
F0.0
sg17
F0.17660034006319408
sg18
F0.22612648217785505
sg19
F0.07926452614279388
sg20
F0.01784555171080395
sg21
F0.014272895238997564
sg22
F0.0005453420331481199
sg23
F0.0015391949929556713
sg24
F0.0012509016888186339
ssS'KEAN STEVEN J'
p227
(dp228
g3
F0.08368672144182347
sg4
F0.4317345755965269
sg5
F0.0
sg6
F0.9656203288490284
sg7
F0.07575757575757576
sg8
F0.16271063598477986
sg9
F0.001044859292281973
sg10
F0.318389939770666
sg11
F0.13942617666021923
sg12
F0.0
sg13
F0.20554854981084492
sg14
F0.009870759492617627
sg15
F0.0016420361247947454
sg16
F0.037037037037037035
sg17
F0.17537450944893823
sg18
F0.19023641924015627
sg19
F0.14605016536085277
sg20
F0.020100957279256797
sg21
F0.02990365524932684
sg22
F0.00018546676187592413
sg23
F0.003933917146810087
sg24
F0.00018668445606723034
ssS'FOWLER PEGGY'
p229
(dp230
g3
F0.058772859793267955
sg4
F0.22792467685847387
sg5
F0.0
sg6
F0.7789649535771258
sg7
F0.05018939393939394
sg8
F0.10726580902337379
sg9
F0.002020061298411814
sg10
F0.07029479668804081
sg11
F0.10463085404686714
sg12
F0.06824657209875633
sg13
F0.04476670870113494
sg14
F0.0421522315980062
sg15
F0.009852216748768473
sg16
F0.05377599822044267
sg17
F0.1681174171596938
sg18
F0.18907687473948512
sg19
F0.055616457671701945
sg20
F0.011630350799290591
sg21
F0.05894814861357657
sg22
F0.0008723692888341411
sg23
F0.0020827341950804346
sg24
F0.00010646998709521977
ssS'WASAFF GEORGE'
p231
(dp232
g3
F0.058772859793267955
sg4
F0.14713382761411106
sg5
F0.0
sg6
F0.9656203288490284
sg7
F0.05018939393939394
sg8
F0.10726580902337379
sg9
F0.002020061298411814
sg10
F0.08904993620425677
sg11
F0.10463085404686714
sg12
F0.060297138948715884
sg13
F0.07944514501891552
sg14
F0.02185820609201201
sg15
F0.009852216748768473
sg16
F0.05377599822044267
sg17
F0.17379042511584583
sg18
F0.22612648217785505
sg19
F0.07926452614279388
sg20
F0.0008426255227120564
sg21
F0.02990365524932684
sg22
F0.0005453420331481199
sg23
F0.0015391949929556713
sg24
F0.0012509016888186339
ssS'WHITE JR THOMAS E'
p233
(dp234
g3
F0.3950437317784256
sg4
F0.25234564661111475
sg5
F0.0
sg6
F0.9656203288490284
sg7
F0.3522727272727273
sg8
F0.7099112157999637
sg9
F0.03789356366675954
sg10
F0.22965811156693855
sg11
F0.14218273340096788
sg12
F0.14560525557349763
sg13
F0.3694829760403531
sg14
F0.12457193103714434
sg15
F0.03940886699507389
sg16
F0.04316546762589928
sg17
F0.3109875491357226
sg18
F0.45903467920319124
sg19
F0.11187902347620036
sg20
F0.0451664931837107
sg21
F0.09549179054630182
sg22
F0.0010795826764839263
sg23
F0.00093966520168116
sg24
F0.02905713635117991
ssS'CHRISTODOULOU DIOMEDES'
p235
(dp236
g3
F0.4809170421415319
sg4
F0.16194912844738973
sg5
F0.0
sg6
F0.9656203288490284
sg7
F0.2727272727272727
sg8
F0.47780394999094034
sg9
F0.3016857063248816
sg10
F0.11187781605556253
sg11
F0.09057459897325519
sg12
F0.060297138948715884
sg13
F0.07944514501891552
sg14
F0.00346094739345721
sg15
F0.6338259441707718
sg16
F0.08887865530739121
sg17
F0.15723183630900145
sg18
F0.20782944612844478
sg19
F0.1276704732263647
sg20
F0.00935615412741131
sg21
F0.02990365524932684
sg22
F4.5560615528352054e-05
sg23
F0.0013409328950525182
sg24
F5.444158904959561e-05
ssS'ALLEN PHILLIP K'
p237
(dp238
g3
F0.5257089848926583
sg4
F0.07526627736587713
sg5
F1.0
sg6
F0.33393301028984
sg7
F0.4318181818181818
sg8
F1.0
sg9
F0.032878239063806075
sg10
F1.0
sg11
F0.1312780069067062
sg12
F0.20988371050769952
sg13
F0.6532155107187894
sg14
F0.02349338777374559
sg15
F0.17733990147783252
sg16
F0.2231404958677686
sg17
F0.15904812479241265
sg18
F0.19222691061514377
sg19
F0.17289263784432607
sg20
F0.053123801264479034
sg21
F0.027656085661596143
sg22
F0.00046815809713199997
sg23
F0.0006666099226959924
sg24
F0.02033798767091063
ssS'SHARP VICTORIA T'
p239
(dp240
g3
F0.058772859793267955
sg4
F0.19444480895829233
sg5
F0.0
sg6
F0.9656203288490284
sg7
F0.05018939393939394
sg8
F0.10726580902337379
sg9
F0.002020061298411814
sg10
F0.08904993620425677
sg11
F0.10463085404686714
sg12
F0.060297138948715884
sg13
F0.07944514501891552
sg14
F0.01634957896045078
sg15
F0.009852216748768473
sg16
F0.05377599822044267
sg17
F0.17379042511584583
sg18
F0.22612648217785505
sg19
F0.07926452614279388
sg20
F0.010210540988239192
sg21
F0.022019793857633082
sg22
F0.0005453420331481199
sg23
F0.0015391949929556713
sg24
F0.0012509016888186339
ssS'JAEDICKE ROBERT'
p241
(dp242
g3
F0.17174662072621255
sg4
F0.19444480895829233
sg5
F0.0
sg6
F0.9656203288490284
sg7
F0.06628787878787878
sg8
F0.10309838738901975
sg9
F0.07307049317358597
sg10
F0.08904993620425677
sg11
F0.060791707830333414
sg12
F0.060297138948715884
sg13
F0.07944514501891552
sg14
F0.00794960004513147
sg15
F0.06239737274220033
sg16
F0.03581526861451461
sg17
F0.1699367575513423
sg18
F0.22612648217785505
sg19
F0.07926452614279388
sg20
F0.010210540988239192
sg21
F0.02990365524932684
sg22
F0.0005453420331481199
sg23
F0.0015391949929556713
sg24
F0.0012509016888186339
ssS'WINOKUR JR. HERBERT S'
p243
(dp244
g3
F0.058772859793267955
sg4
F0.3552041642061982
sg5
F0.0
sg6
F0.9656203288490284
sg7
F0.05018939393939394
sg8
F0.10726580902337379
sg9
F0.002020061298411814
sg10
F0.04544059213566229
sg11
F0.10463085404686714
sg12
F0.060297138948715884
sg13
F0.04791929382093317
sg14
F0.3089913976984781
sg15
F0.009852216748768473
sg16
F0.05377599822044267
sg17
F0.9473332771321552
sg18
F0.2854442054734462
sg19
F0.03218163076060329
sg20
F0.018677265647250915
sg21
F0.03766953765368387
sg22
F0.004334519599823353
sg23
F0.002150115447364891
sg24
F0.10477698881447359
ssS'BROWN MICHAEL'
p245
(dp246
g3
F0.23654916512059368
sg4
F0.12767316230343592
sg5
F1.0
sg6
F0.9253138171450525
sg7
F0.16666666666666669
sg8
F0.36963217974270696
sg9
F0.006687099470604626
sg10
F0.1950189930621703
sg11
F0.11163320017129215
sg12
F0.3645981224972721
sg13
F0.6973518284993695
sg14
F0.5317507033126446
sg15
F0.04926108374384236
sg16
F0.2777777777777778
sg17
F0.5440551591529837
sg18
F1.0
sg19
F0.11258126005874779
sg20
F0.08384122985357857
sg21
F0.5603918917223094
sg22
F0.002132093890356817
sg23
F0.00020316799684703813
sg24
F0.0021351914003139272
ssS'BADUM JAMES P'
p247
(dp248
g3
F0.11933474688576728
sg4
F0.28764079347374405
sg5
F1.0
sg6
F1.0
sg7
F0.26515151515151514
sg8
F0.2882768617503171
sg9
F0.001044859292281973
sg10
F0.18702041040686568
sg11
F0.3466894166685753
sg12
F0.17829637105313392
sg13
F0.1614123581336696
sg14
F0.006024880370782777
sg15
F0.02463054187192118
sg16
F0.5555555555555556
sg17
F0.16448892859824588
sg18
F0.25038598967753317
sg19
F0.08542606387671917
sg20
F0.025776845797414617
sg21
F0.11388151770941175
sg22
F7.830299813125363e-05
sg23
F0.001983791062455623
sg24
F0.00015627824941719023
ssS'HUGHES JAMES A'
p249
(dp250
g3
F0.058772859793267955
sg4
F0.19444480895829233
sg5
F0.0
sg6
F0.9656203288490284
sg7
F0.05018939393939394
sg8
F0.10726580902337379
sg9
F0.002020061298411814
sg10
F0.08904993620425677
sg11
F0.10463085404686714
sg12
F0.058390401817418544
sg13
F0.07944514501891552
sg14
F0.02185820609201201
sg15
F0.009852216748768473
sg16
F0.05377599822044267
sg17
F0.17379042511584583
sg18
F0.005525841727577263
sg19
F0.07926452614279388
sg20
F0.011071011299816642
sg21
F0.02990365524932684
sg22
F0.0005453420331481199
sg23
F0.0015391949929556713
sg24
F0.06571900977699509
ssS'REYNOLDS LAWRENCE'
p251
(dp252
g3
F0.07825337927378742
sg4
F0.18769109638475165
sg5
F0.0
sg6
F0.9907237024814524
sg7
F0.11553030303030304
sg8
F0.13408226127921724
sg9
F0.014628030091947618
sg10
F0.07072909417592234
sg11
F0.22670831471487987
sg12
F0.060297138948715884
sg13
F0.0416141235813367
sg14
F0.01880578964499269
sg15
F0.07881773399014778
sg16
F0.21621621621621623
sg17
F0.17355822096552703
sg18
F0.17700518824142655
sg19
F0.03170654092200272
sg20
F0.016777587447311157
sg21
F0.025535084350754092
sg22
F0.0004023118807640694
sg23
F0.0018304255609787206
sg24
F7.490544876327338e-05
ssS'DIMICHELE RICHARD G'
p253
(dp254
g3
F0.22965809700503576
sg4
F0.19444480895829233
sg5
F0.0
sg6
F0.8019070925999977
sg7
F0.29545454545454547
sg8
F0.4223591230295343
sg9
F0.07251323488436891
sg10
F0.09935669841935142
sg11
F0.20373714375441626
sg12
F0.13802401042825052
sg13
F0.1046658259773014
sg14
F0.07097186116718356
sg15
F0.11658456486042693
sg16
F0.06742640075973409
sg17
F0.20189507378247287
sg18
F0.2971503833789019
sg19
F0.061316545119642026
sg20
F0.02274586785228937
sg21
F0.07394149599044685
sg22
F0.0009439614773408627
sg23
F0.0015391949929556713
sg24
F0.03866607681843354
ssS'BHATNAGAR SANJAY'
p255
(dp256
g3
F0.12046117148157963
sg4
F0.5160903702731666
sg5
F1.0
sg6
F0.9253138171450525
sg7
F0.11742424242424243
sg8
F0.28755209277042937
sg9
F0.0022638617999442743
sg10
F0.13420149704094647
sg11
F0.1409706159488055
sg12
F0.10508783027340668
sg13
F0.09205548549810845
sg14
F0.0209366769709126
sg15
F0.025451559934318555
sg16
F0.2763888888888889
sg17
F0.2066960709387854
sg18
F0.2015050671554519
sg19
F0.0456271211022542
sg20
F0.02561291128412037
sg21
F0.11388151770941175
sg22
F0.0003954955459137115
sg23
F0.0044416838639509465
sg24
F0.08759883344416315
ssS'CARTER REBECCA C'
p257
(dp258
g3
F0.058772859793267955
sg4
F0.04834328456138049
sg5
F0.0
sg6
F0.6046236491926908
sg7
F0.05018939393939394
sg8
F0.10726580902337379
sg9
F0.002020061298411814
sg10
F0.17244440538246414
sg11
F0.10463085404686714
sg12
F0.2988118500196308
sg13
F0.14249684741488022
sg14
F0.21701822618471175
sg15
F0.009852216748768473
sg16
F0.05377599822044267
sg17
F0.37700878903505797
sg18
F0.24003381404615312
sg19
F0.02834895577599915
sg20
F0.054405313961823645
sg21
F0.19441664733591246
sg22
F0.0036141001137168093
sg23
F0.00033476813822187664
sg24
F0.25679257764224867
ssS'BUCHANAN HAROLD G'
p259
(dp260
g3
F0.12046117148157963
sg4
F0.2353257660258513
sg5
F1.0
sg6
F0.9253138171450525
sg7
F0.11742424242424243
sg8
F0.28755209277042937
sg9
F0.0022638617999442743
sg10
F0.15869063650516163
sg11
F0.1409706159488055
sg12
F0.20988371050769952
sg13
F0.15195460277427492
sg14
F0.2426823758252377
sg15
F0.025451559934318555
sg16
F0.2763888888888889
sg17
F0.3559040949928896
sg18
F0.14217564038275773
sg19
F0.10070766604071542
sg20
F0.0034777253243770774
sg21
F0.2418181120980318
sg22
F0.006821380983417221
sg23
F0.0028649635041202368
sg24
F0.014281071306222644
ssS'YEAP SOON'
p261
(dp262
g3
F0.058772859793267955
sg4
F0.24035605712661023
sg5
F0.0
sg6
F0.9656203288490284
sg7
F0.05018939393939394
sg8
F0.10726580902337379
sg9
F0.002020061298411814
sg10
F0.08904993620425677
sg11
F0.10463085404686714
sg12
F0.060297138948715884
sg13
F0.07944514501891552
sg14
F0.004818533100680307
sg15
F0.009852216748768473
sg16
F0.05377599822044267
sg17
F0.17379042511584583
sg18
F0.22612648217785505
sg19
F0.07926452614279388
sg20
F0.0005306024368855263
sg21
F0.0055167405398947895
sg22
F0.0005453420331481199
sg23
F0.0015391949929556713
sg24
F0.0012509016888186339
ssS'MURRAY JULIA H'
p263
(dp264
g3
F0.058772859793267955
sg4
F0.008761454847669662
sg5
F0.0
sg6
F0.9892928692672838
sg7
F0.05018939393939394
sg8
F0.10726580902337379
sg9
F0.002020061298411814
sg10
F0.08904993620425677
sg11
F0.10463085404686714
sg12
F0.060297138948715884
sg13
F0.07944514501891552
sg14
F0.02185820609201201
sg15
F0.009852216748768473
sg16
F0.05377599822044267
sg17
F0.17379042511584583
sg18
F0.22612648217785505
sg19
F0.07926452614279388
sg20
F1.934151087520626e-05
sg21
F0.02990365524932684
sg22
F0.0005453420331481199
sg23
F0.0015391949929556713
sg24
F0.0012509016888186339
ssS'GARLAND C KEVIN'
p265
(dp266
g3
F0.058772859793267955
sg4
F0.19444480895829233
sg5
F0.0
sg6
F0.993102145165208
sg7
F0.05018939393939394
sg8
F0.10726580902337379
sg9
F0.002020061298411814
sg10
F0.08904993620425677
sg11
F0.10463085404686714
sg12
F0.060297138948715884
sg13
F0.07944514501891552
sg14
F0.008459973823991458
sg15
F0.009852216748768473
sg16
F0.05377599822044267
sg17
F0.17379042511584583
sg18
F0.22612648217785505
sg19
F0.07926452614279388
sg20
F0.0007468546266260375
sg21
F0.010728313812692751
sg22
F0.0005453420331481199
sg23
F0.0015391949929556713
sg24
F0.0012509016888186339
ssS'DODSON KEITH'
p267
(dp268
g3
F0.016896368937185262
sg4
F0.19444480895829233
sg5
F0.0
sg6
F0.9546292006999751
sg7
F0.054924242424242424
sg8
F0.03515129552455155
sg9
F0.00020897185845639447
sg10
F0.03423905323414288
sg11
F0.42766298417894166
sg12
F0.0011380535600273509
sg13
F0.029003783102143764
sg14
F0.02185820609201201
sg15
F0.011494252873563218
sg16
F0.4666666666666667
sg17
F0.1676701686449942
sg18
F0.23526869833027395
sg19
F0.1093127740687156
sg20
F0.004609990696665674
sg21
F0.02990365524932684
sg22
F0.0005453420331481199
sg23
F0.0015391949929556713
sg24
F5.1931870405465315e-05
ssS'YEAGER F SCOTT'
p269
(dp270
g3
F0.058772859793267955
sg4
F0.19444480895829233
sg5
F0.0
sg6
F0.9656203288490284
sg7
F0.05018939393939394
sg8
F0.10726580902337379
sg9
F0.002020061298411814
sg10
F0.08904993620425677
sg11
F0.10463085404686714
sg12
F0.060297138948715884
sg13
F0.07944514501891552
sg14
F0.0037275168367705766
sg15
F0.009852216748768473
sg16
F0.05377599822044267
sg17
F0.17379042511584583
sg18
F0.22612648217785505
sg19
F0.07926452614279388
sg20
F0.010210540988239192
sg21
F0.003955295048064937
sg22
F0.0005453420331481199
sg23
F0.0015391949929556713
sg24
F0.0012509016888186339
ssS'HIRKO JOSEPH'
p271
(dp272
g3
F0.058772859793267955
sg4
F0.19444480895829233
sg5
F0.0
sg6
F0.9656203288490284
sg7
F0.05018939393939394
sg8
F0.10726580902337379
sg9
F0.002020061298411814
sg10
F0.10041769074719392
sg11
F0.10463085404686714
sg12
F0.046409024368766386
sg13
F0.08575031525851198
sg14
F0.018751287657765604
sg15
F0.009852216748768473
sg16
F0.05377599822044267
sg17
F0.17537450944893823
sg18
F0.24523555948472292
sg19
F0.05493590712258547
sg20
F0.02073032405624797
sg21
F0.012614026822284017
sg22
F0.00028857090907545417
sg23
F0.0015391949929556713
sg24
F0.0790837441951897
ssS'DIETRICH JANET R'
p273
(dp274
g3
F0.058772859793267955
sg4
F0.040513527108894866
sg5
F0.0
sg6
F0.9788309182135962
sg7
F0.05018939393939394
sg8
F0.10726580902337379
sg9
F0.002020061298411814
sg10
F0.10534964035170431
sg11
F0.10463085404686714
sg12
F0.020837786293753352
sg13
F0.08575031525851198
sg14
F0.00939313980089299
sg15
F0.009852216748768473
sg16
F0.05377599822044267
sg17
F0.17402262926616463
sg18
F0.23500491996172065
sg19
F0.10182885409809948
sg20
F0.012277311302100349
sg21
F0.02990365524932684
sg22
F0.0001412725818088481
sg23
F0.00028436490389248967
sg24
F0.014542275100492512
ssS'DERRICK JR. JAMES V'
p275
(dp276
g3
F0.09468592631857936
sg4
F0.21494652581851584
sg5
F0.0
sg6
F0.9656203288490284
sg7
F0.02462121212121212
sg8
F0.13752491393368363
sg9
F0.002020061298411814
sg10
F0.08904993620425677
sg11
F0.0402515678245182
sg12
F0.060297138948715884
sg13
F0.07944514501891552
sg14
F0.02185820609201201
sg15
F0.0016420361247947454
sg16
F0.024390243902439025
sg17
F0.17379042511584583
sg18
F0.22612648217785505
sg19
F0.07926452614279388
sg20
F0.00047450915846611867
sg21
F0.02990365524932684
sg22
F0.0005453420331481199
sg23
F0.0015391949929556713
sg24
F0.0012509016888186339
ssS'FREVERT MARK A'
p277
(dp278
g3
F0.058772859793267955
sg4
F0.15600026244997048
sg5
F0.0
sg6
F0.9656203288490284
sg7
F0.05018939393939394
sg8
F0.10726580902337379
sg9
F0.002020061298411814
sg10
F0.14406174167416713
sg11
F0.10463085404686714
sg12
F0.12324921087795601
sg13
F0.11727616645649433
sg14
F0.17011526854964149
sg15
F0.009852216748768473
sg16
F0.05377599822044267
sg17
F0.15723183630900145
sg18
F0.23615006018288034
sg19
F0.0691588304248269
sg20
F0.022866078770354993
sg21
F0.2384174231088983
sg22
F0.002875400082888081
sg23
F0.001134110524840701
sg24
F0.03616765190820183
ssS'PAI LOU L'
p279
(dp280
g3
F0.005234561357010337
sg4
F0.19444480895829233
sg5
F0.0
sg6
F0.7950175150768377
sg7
F0.022727272727272728
sg8
F0.020293531436854504
sg9
F0.00027862914460852607
sg10
F0.16742357698025917
sg11
F0.40597622027534425
sg12
F0.32629100720990517
sg13
F0.12988650693568726
sg14
F0.029721607958763052
sg15
F0.0
sg16
F0.0
sg17
F0.17073514826285383
sg18
F0.22612648217785505
sg19
F0.05380471377358762
sg20
F0.03091862665230264
sg21
F0.03066041533320373
sg22
F0.0005081767269549942
sg23
F0.0015391949929556713
sg24
F9.12186199501203e-05
ssS'BAY FRANKLIN R'
p281
(dp282
g3
F0.11270871985157697
sg4
F0.07158760361306125
sg5
F1.0
sg6
F0.9591189286989521
sg7
F0.4545454545454546
sg8
F0.20474723681826418
sg9
F0.0019504040122596822
sg10
F0.15865911361272095
sg11
F0.6281315808583255
sg12
F0.20988371050769952
sg13
F0.14249684741488022
sg14
F0.015102177188584873
sg15
F0.0180623973727422
sg16
F0.275
sg17
F0.1901817923845561
sg18
F0.2593355485914865
sg19
F0.14382349106145512
sg20
F0.014389736465396341
sg21
F0.11388151770941175
sg22
F0.00021613951547214792
sg23
F0.0004644059303428524
sg24
F0.00982052905448184
ssS'HAYSLETT RODERICK J'
p283
(dp284
g3
F0.058772859793267955
sg4
F0.19444480895829233
sg5
F0.0
sg6
F0.9656203288490284
sg7
F0.05018939393939394
sg8
F0.10726580902337379
sg9
F0.002020061298411814
sg10
F0.08904993620425677
sg11
F0.10463085404686714
sg12
F0.060297138948715884
sg13
F0.07944514501891552
sg14
F0.040473737213470654
sg15
F0.009852216748768473
sg16
F0.05377599822044267
sg17
F0.16517750819638902
sg18
F0.22612648217785505
sg19
F0.07926452614279388
sg20
F0.010210540988239192
sg21
F0.05096741750547873
sg22
F0.0005453420331481199
sg23
F0.0015391949929556713
sg24
F0.0012509016888186339
ssS'FUGH JOHN L'
p285
(dp286
g3
F0.007884972170686457
sg4
F0.12254663954683638
sg5
F0.0
sg6
F0.9656203288490284
sg7
F0.01893939393939394
sg8
F0.020293531436854504
sg9
F0.0001393145723042631
sg10
F0.0
sg11
F0.26142408123791105
sg12
F0.060297138948715884
sg13
F0.0
sg14
F0.02185820609201201
sg15
F0.0049261083743842365
sg16
F0.21428571428571427
sg17
F0.17379042511584583
sg18
F0.1985323839712779
sg19
F0.02948200327084615
sg20
F0.0030880078818346663
sg21
F0.02990365524932684
sg22
F0.0005453420331481199
sg23
F0.0010592139739549716
sg24
F7.451933820263796e-05
ssS'FALLON JAMES B'
p287
(dp288
g3
F0.058772859793267955
sg4
F0.09708899241082168
sg5
F0.0
sg6
F0.9656203288490284
sg7
F0.05018939393939394
sg8
F0.10726580902337379
sg9
F0.002020061298411814
sg10
F0.0595050250233224
sg11
F0.10463085404686714
sg12
F0.04053751902747935
sg13
F0.032156368221942
sg14
F0.005127398039120627
sg15
F0.009852216748768473
sg16
F0.05377599822044267
sg17
F0.16194864686450403
sg18
F0.16602912725370708
sg19
F0.06525496057234255
sg20
F0.007800412989055727
sg21
F0.02990365524932684
sg22
F9.830712563590525e-05
sg23
F0.001003356263393198
sg24
F6.863115215294764e-05
ssS'KOENIG MARK E'
p289
(dp290
g3
F0.004704479194275113
sg4
F0.02119720928198062
sg5
F0.0
sg6
F0.9656203288490284
sg7
F0.01893939393939394
sg8
F0.02119949266171408
sg9
F0.00034828643076065767
sg10
F0.08904993620425677
sg11
F0.3594581117021277
sg12
F0.060297138948715884
sg13
F0.07944514501891552
sg14
F0.04733801735767246
sg15
F0.027914614121510674
sg16
F1.0
sg17
F0.17379042511584583
sg18
F0.11725713709543105
sg19
F0.07926452614279388
sg20
F0.029935174072873653
sg21
F0.06636996445984913
sg22
F0.0015845706269557603
sg23
F0.00030317488141943323
sg24
F0.0012509016888186339
ssS'SAVAGE FRANK'
p291
(dp292
g3
F0.058772859793267955
sg4
F0.19444480895829233
sg5
F0.0
sg6
F0.9656203288490284
sg7
F0.05018939393939394
sg8
F0.10726580902337379
sg9
F0.002020061298411814
sg10
F0.08904993620425677
sg11
F0.10463085404686714
sg12
F0.060297138948715884
sg13
F0.07944514501891552
sg14
F0.023174696609164665
sg15
F0.009852216748768473
sg16
F0.05377599822044267
sg17
F0.16199868664296083
sg18
F0.22612648217785505
sg19
F0.07926452614279388
sg20
F0.005448068115722103
sg21
F0.02570806390745882
sg22
F0.0005453420331481199
sg23
F0.0015391949929556713
sg24
F0.0012509016888186339
ssS'IZZO LAWRENCE L'
p293
(dp294
g3
F0.034190299496421946
sg4
F0.001430352339085362
sg5
F0.0
sg6
F0.9656203288490284
sg7
F0.007575757575757576
sg8
F0.08497916289182823
sg9
F0.00048760100306492065
sg10
F0.08904993620425677
sg11
F0.032119119230626415
sg12
F0.060297138948715884
sg13
F0.07944514501891552
sg14
F0.04600610597216664
sg15
F0.011494252873563218
sg16
F0.3684210526315789
sg17
F0.277653916369883
sg18
F0.22612648217785505
sg19
F0.07926452614279388
sg20
F3.1576006271554906e-06
sg21
F0.02990365524932684
sg22
F0.0005453420331481199
sg23
F0.0015391949929556713
sg24
F0.0012509016888186339
ssS'TILNEY ELIZABETH A'
p295
(dp296
g3
F0.013848396501457725
sg4
F0.201198521531833
sg5
F0.0
sg6
F0.9656203288490284
sg7
F0.0
sg8
F0.012864649393005979
sg9
F0.002020061298411814
sg10
F0.08904993620425677
sg11
F0.0
sg12
F0.02576271947718485
sg13
F0.07944514501891552
sg14
F0.09891101611702495
sg15
F0.0
sg16
F0.0
sg17
F0.17101108683404484
sg18
F0.19951367551299493
sg19
F0.07926452614279388
sg20
F0.008799808071956986
sg21
F0.129543694138136
sg22
F0.001969393009308936
sg23
F0.001739861250963901
sg24
F0.041181297538052886
ssS'MARTIN AMANDA K'
p297
(dp298
g3
F0.058772859793267955
sg4
F0.19444480895829233
sg5
F0.0
sg6
F0.993102145165208
sg7
F0.05018939393939394
sg8
F0.10726580902337379
sg9
F0.002020061298411814
sg10
F0.08904993620425677
sg11
F0.10463085404686714
sg12
F0.060297138948715884
sg13
F0.07944514501891552
sg14
F0.009296688169148455
sg15
F0.009852216748768473
sg16
F0.05377599822044267
sg17
F0.17379042511584583
sg18
F0.22612648217785505
sg19
F0.07926452614279388
sg20
F0.000843417336936603
sg21
F0.011925806357407791
sg22
F0.0005453420331481199
sg23
F0.0015391949929556713
sg24
F0.0012509016888186339
ssS'BUY RICHARD B'
p299
(dp300
g3
F0.058772859793267955
sg4
F0.014600966690724582
sg5
F0.0
sg6
F0.9656203288490284
sg7
F0.05018939393939394
sg8
F0.10726580902337379
sg9
F0.002020061298411814
sg10
F0.08904993620425677
sg11
F0.10463085404686714
sg12
F0.060297138948715884
sg13
F0.07944514501891552
sg14
F0.006142103383251037
sg15
F0.009852216748768473
sg16
F0.05377599822044267
sg17
F0.17379042511584583
sg18
F0.22612648217785505
sg19
F0.07926452614279388
sg20
F0.0017605120218401676
sg21
F0.007411013722802197
sg22
F0.0005453420331481199
sg23
F0.0015391949929556713
sg24
F0.0012509016888186339
ssS'GRAMM WENDY L'
p301
(dp302
g3
F0.030479724357275376
sg4
F0.19444480895829233
sg5
F0.0
sg6
F0.9656203288490284
sg7
F0.0
sg8
F0.0014495379597753216
sg9
F0.0016717748676511562
sg10
F0.08904993620425677
sg11
F0.0
sg12
F0.060297138948715884
sg13
F0.07944514501891552
sg14
F0.0392406373815154
sg15
F0.0
sg16
F0.0
sg17
F0.18223116834417968
sg18
F0.22612648217785505
sg19
F0.07926452614279388
sg20
F0.010210540988239192
sg21
F0.03847107850817376
sg22
F0.0005453420331481199
sg23
F0.0015391949929556713
sg24
F0.0012509016888186339
ssS'CAUSEY RICHARD A'
p303
(dp304
g3
F0.058772859793267955
sg4
F0.5642411915228659
sg5
F0.0
sg6
F0.9426844691660151
sg7
F0.05018939393939394
sg8
F0.10726580902337379
sg9
F0.002020061298411814
sg10
F0.05583961589480119
sg11
F0.10463085404686714
sg12
F0.060297138948715884
sg13
F0.0416141235813367
sg14
F0.0021790012489479277
sg15
F0.009852216748768473
sg16
F0.05377599822044267
sg17
F0.1583701980815129
sg18
F0.21533857709125384
sg19
F0.0810530727464817
sg20
F0.007991027779208784
sg21
F0.02990365524932684
sg22
F1.991839933489061e-05
sg23
F0.004544739004030448
sg24
F6.46735189064345e-06
ssS'TAYLOR MITCHELL S'
p305
(dp306
g3
F0.17161410018552875
sg4
F0.19444480895829233
sg5
F0.0
sg6
F0.9656203288490284
sg7
F0.07007575757575758
sg8
F0.46439572386301864
sg9
F0.0018110894399554194
sg10
F0.09918435942929392
sg11
F0.06431407695584725
sg12
F0.08022282761689771
sg13
F0.07944514501891552
sg14
F0.015115970524658021
sg15
F0.02134646962233169
sg16
F0.34210526315789475
sg17
F0.19022083377672377
sg18
F0.231376842059776
sg19
F0.0751619798712521
sg20
F0.014918079334860602
sg21
F0.02990365524932684
sg22
F0.00024293053523238321
sg23
F0.0015391949929556713
sg24
F0.010726151374452242
ssS'DONAHUE JR JEFFREY M'
p307
(dp308
g3
F0.058772859793267955
sg4
F0.19444480895829233
sg5
F0.0
sg6
F0.9720423809772536
sg7
F0.05018939393939394
sg8
F0.10726580902337379
sg9
F0.002020061298411814
sg10
F0.08904993620425677
sg11
F0.10463085404686714
sg12
F0.060297138948715884
sg13
F0.07944514501891552
sg14
F0.02185820609201201
sg15
F0.009852216748768473
sg16
F0.05377599822044267
sg17
F0.15184395144033946
sg18
F0.22612648217785505
sg19
F0.07926452614279388
sg20
F0.010210540988239192
sg21
F0.02990365524932684
sg22
F0.0005453420331481199
sg23
F0.0015391949929556713
sg24
F0.0012509016888186339
ssS'GLISAN JR BEN F'
p309
(dp310
g3
F0.11250993904055127
sg4
F0.418940139535901
sg5
F0.0
sg6
F0.9656203288490284
sg7
F0.07954545454545454
sg8
F0.2902699764450081
sg9
F0.004388409027584286
sg10
F0.3258607501994525
sg11
F0.11011092925986544
sg12
F0.06010861250645412
sg13
F0.3064312736443884
sg14
F0.048347718040041815
sg15
F0.06075533661740558
sg16
F0.49333333333333335
sg17
F0.23013875702341977
sg18
F0.2737812404065248
sg19
F0.11941856495019036
sg20
F0.03549830631420183
sg21
F0.027281097661124812
sg22
F0.0006926110235696934
sg23
F0.002647748186400701
sg24
F0.03875382044333794
ss.