(lp0
S'poi'
p1
aS'to_messages'
p2
aS'total_payments'
p3
aS'exercised_stock_options'
p4
aS'bonus'
p5
aS'restricted_stock'
p6
aS'shared_receipt_with_poi'
p7
aS'total_stock_value'
p8
aS'expenses'
p9
aS'from_messages'
p10
aS'other'
p11
aS'from_this_person_to_poi'
p12
aS'salary'
p13
aS'deferred_income'
p14
aS'long_term_incentive'
p15
aS'from_poi_to_this_person'
p16
aS'to_poi_ratio'
p17
aS'from_poi_ratio'
p18
aS'bonus_to_salary'
p19
aS'bonus_to_total'
p20
aS'expenses_to_salary'
p21
aS'stock_to_salary'
p22
a.